
../../tests/adder.riscv:     file format elf64-littleriscv


Disassembly of section .text:

0000000080000000 <_start>:
    .global _start
    .type _start, @function
_start:
    .cfi_startproc

    li x1, 0
    80000000:	4081                	li	ra,0
    li x2, 0
    80000002:	4101                	li	sp,0
    li x3, 0
    80000004:	4181                	li	gp,0
    li x4, 0
    80000006:	4201                	li	tp,0
    li x5, 0
    80000008:	4281                	li	t0,0
    li x6, 0
    8000000a:	4301                	li	t1,0
    li x7, 0
    8000000c:	4381                	li	t2,0
    li x8, 0
    8000000e:	4401                	li	s0,0
    li x9, 0
    80000010:	4481                	li	s1,0
    li x10, 0
    80000012:	4501                	li	a0,0
    li x11, 0
    80000014:	4581                	li	a1,0
    li x12, 0
    80000016:	4601                	li	a2,0
    li x13, 0
    80000018:	4681                	li	a3,0
    li x14, 0
    8000001a:	4701                	li	a4,0
    li x15, 0
    8000001c:	4781                	li	a5,0
    li x16, 0
    8000001e:	4801                	li	a6,0
    li x17, 0
    80000020:	4881                	li	a7,0
    li x18, 0
    80000022:	4901                	li	s2,0
    li x19, 0
    80000024:	4981                	li	s3,0
    li x20, 0
    80000026:	4a01                	li	s4,0
    li x21, 0
    80000028:	4a81                	li	s5,0
    li x22, 0
    8000002a:	4b01                	li	s6,0
    li x23, 0
    8000002c:	4b81                	li	s7,0
    li x24, 0
    8000002e:	4c01                	li	s8,0
    li x25, 0
    80000030:	4c81                	li	s9,0
    li x26, 0
    80000032:	4d01                	li	s10,0
    li x27, 0
    80000034:	4d81                	li	s11,0
    li x28, 0
    80000036:	4e01                	li	t3,0
    li x29, 0
    80000038:	4e81                	li	t4,0
    li x30, 0
    8000003a:	4f01                	li	t5,0
    li x31, 0
    8000003c:	4f81                	li	t6,0

    li t0, (MSTATUS_FS | MSTATUS_XS | MSTATUS_VS)
    8000003e:	62f9                	lui	t0,0x1e
    80000040:	6002829b          	addiw	t0,t0,1536 # 1e600 <__stack_size+0x16600>
    csrs mstatus, t0
    80000044:	3002a073          	csrs	mstatus,t0

#ifdef __riscv_flen
    /* Initialize FPU if present */
    la t0, 1f
    80000048:	00000297          	auipc	t0,0x0
    8000004c:	09028293          	addi	t0,t0,144 # 800000d8 <_start+0xd8>
    csrw mtvec, t0
    80000050:	30529073          	csrw	mtvec,t0

    fscsr zero
    80000054:	00301073          	fscsr	zero
    fmv.s.x f0,  zero
    80000058:	f0000053          	fmv.w.x	ft0,zero
    fmv.s.x f1,  zero
    8000005c:	f00000d3          	fmv.w.x	ft1,zero
    fmv.s.x f2,  zero
    80000060:	f0000153          	fmv.w.x	ft2,zero
    fmv.s.x f3,  zero
    80000064:	f00001d3          	fmv.w.x	ft3,zero
    fmv.s.x f4,  zero
    80000068:	f0000253          	fmv.w.x	ft4,zero
    fmv.s.x f5,  zero
    8000006c:	f00002d3          	fmv.w.x	ft5,zero
    fmv.s.x f6,  zero
    80000070:	f0000353          	fmv.w.x	ft6,zero
    fmv.s.x f7,  zero
    80000074:	f00003d3          	fmv.w.x	ft7,zero
    fmv.s.x f8,  zero
    80000078:	f0000453          	fmv.w.x	fs0,zero
    fmv.s.x f9,  zero
    8000007c:	f00004d3          	fmv.w.x	fs1,zero
    fmv.s.x f10, zero
    80000080:	f0000553          	fmv.w.x	fa0,zero
    fmv.s.x f11, zero
    80000084:	f00005d3          	fmv.w.x	fa1,zero
    fmv.s.x f12, zero
    80000088:	f0000653          	fmv.w.x	fa2,zero
    fmv.s.x f13, zero
    8000008c:	f00006d3          	fmv.w.x	fa3,zero
    fmv.s.x f14, zero
    80000090:	f0000753          	fmv.w.x	fa4,zero
    fmv.s.x f15, zero
    80000094:	f00007d3          	fmv.w.x	fa5,zero
    fmv.s.x f16, zero
    80000098:	f0000853          	fmv.w.x	fa6,zero
    fmv.s.x f17, zero
    8000009c:	f00008d3          	fmv.w.x	fa7,zero
    fmv.s.x f18, zero
    800000a0:	f0000953          	fmv.w.x	fs2,zero
    fmv.s.x f19, zero
    800000a4:	f00009d3          	fmv.w.x	fs3,zero
    fmv.s.x f20, zero
    800000a8:	f0000a53          	fmv.w.x	fs4,zero
    fmv.s.x f21, zero
    800000ac:	f0000ad3          	fmv.w.x	fs5,zero
    fmv.s.x f22, zero
    800000b0:	f0000b53          	fmv.w.x	fs6,zero
    fmv.s.x f23, zero
    800000b4:	f0000bd3          	fmv.w.x	fs7,zero
    fmv.s.x f24, zero
    800000b8:	f0000c53          	fmv.w.x	fs8,zero
    fmv.s.x f25, zero
    800000bc:	f0000cd3          	fmv.w.x	fs9,zero
    fmv.s.x f26, zero
    800000c0:	f0000d53          	fmv.w.x	fs10,zero
    fmv.s.x f27, zero
    800000c4:	f0000dd3          	fmv.w.x	fs11,zero
    fmv.s.x f28, zero
    800000c8:	f0000e53          	fmv.w.x	ft8,zero
    fmv.s.x f29, zero
    800000cc:	f0000ed3          	fmv.w.x	ft9,zero
    fmv.s.x f30, zero
    800000d0:	f0000f53          	fmv.w.x	ft10,zero
    fmv.s.x f31, zero
    800000d4:	f0000fd3          	fmv.w.x	ft11,zero

    /* Initialize global pointer; disable relaxation to avoid relaxing
       the address calculation to "addi gp, gp, 0" */
    .option push
    .option norelax
    la gp, __global_pointer$
    800000d8:	00002197          	auipc	gp,0x2
    800000dc:	6a018193          	addi	gp,gp,1696 # 80002778 <__global_pointer$>
    .option pop

    /* Initialize thread pointer */
    csrr s0, mhartid
    800000e0:	f1402473          	csrr	s0,mhartid
    lui t0, %hi(__stack_shift)
    addi t0, t0, %lo(__stack_shift)
    800000e4:	00f00293          	li	t0,15
    la tp, __stack_start
    800000e8:	00023217          	auipc	tp,0x23
    800000ec:	f1820213          	addi	tp,tp,-232 # 80023000 <__heap_end>
    sll t0, s0, t0
    800000f0:	005412b3          	sll	t0,s0,t0
    add tp, tp, t0
    800000f4:	9216                	add	tp,tp,t0

    /* Initialize stack pointer */
    lui t0, %hi(__stack_size)
    800000f6:	62a1                	lui	t0,0x8
    addi t0, t0, %lo(__stack_size)
    800000f8:	00028293          	mv	t0,t0
    add sp, tp, t0
    800000fc:	00520133          	add	sp,tp,t0

    /* Initialize trap vector */
    la t0, trap_entry
    80000100:	00000297          	auipc	t0,0x0
    80000104:	04428293          	addi	t0,t0,68 # 80000144 <trap_entry>
    csrw mtvec, t0
    80000108:	30529073          	csrw	mtvec,t0

    /* Initialize TLS */
    call __init_tls
    8000010c:	199010ef          	jal	80001aa4 <__init_tls>

    /* Skip global initialization if not the designated boot hart */
    la t0, __boot_hart
    80000110:	00000293          	li	t0,0
    bne s0, t0, _start_secondary
    80000114:	00540463          	beq	s0,t0,8000011c <_start+0x11c>
    80000118:	0f60006f          	j	8000020e <_start_secondary>

    /* Zero BSS segment */
    la t0, __bss_start
    8000011c:	82018293          	addi	t0,gp,-2016 # 80001f98 <__stdio_exit_handler>
    la t1, __bss_end
    80000120:	b8818313          	addi	t1,gp,-1144 # 80002300 <_end>
    bgeu t0, t1, 2f
    80000124:	0062f763          	bgeu	t0,t1,80000132 <_start+0x132>
1:
    SREG zero, (t0)
    80000128:	0002b023          	sd	zero,0(t0)
    addi t0, t0, REGBYTES
    8000012c:	02a1                	addi	t0,t0,8
    bltu t0, t1, 1b
    8000012e:	fe62ede3          	bltu	t0,t1,80000128 <_start+0x128>
2:

    /* Call global constructors */
    la a0, __libc_fini_array
    80000132:	00002517          	auipc	a0,0x2
    80000136:	aae50513          	addi	a0,a0,-1362 # 80001be0 <__libc_fini_array>
    call atexit
    8000013a:	20f010ef          	jal	80001b48 <atexit>
    call __libc_init_array
    8000013e:	245010ef          	jal	80001b82 <__libc_init_array>

    /* Call main function */
    tail _start_main
    80000142:	a075                	j	800001ee <_start_main>

0000000080000144 <trap_entry>:
    .cfi_endproc


    .align 2
trap_entry:
    csrw mscratch, sp
    80000144:	34011073          	csrw	mscratch,sp
    addi sp, sp, -(32*REGBYTES)
    80000148:	7111                	addi	sp,sp,-256

    /* Save trap frame */
    SREG x1, 1*REGBYTES(sp)
    8000014a:	e406                	sd	ra,8(sp)
    csrr x1, mscratch
    8000014c:	340020f3          	csrr	ra,mscratch
    SREG x1, 2*REGBYTES(sp)
    80000150:	e806                	sd	ra,16(sp)
    SREG x3, 3*REGBYTES(sp)
    80000152:	ec0e                	sd	gp,24(sp)
    SREG x4, 4*REGBYTES(sp)
    80000154:	f012                	sd	tp,32(sp)
    SREG x5, 5*REGBYTES(sp)
    80000156:	f416                	sd	t0,40(sp)
    SREG x6, 6*REGBYTES(sp)
    80000158:	f81a                	sd	t1,48(sp)
    SREG x7, 7*REGBYTES(sp)
    8000015a:	fc1e                	sd	t2,56(sp)
    SREG x8, 8*REGBYTES(sp)
    8000015c:	e0a2                	sd	s0,64(sp)
    SREG x9, 9*REGBYTES(sp)
    8000015e:	e4a6                	sd	s1,72(sp)
    SREG x10, 10*REGBYTES(sp)
    80000160:	e8aa                	sd	a0,80(sp)
    SREG x11, 11*REGBYTES(sp)
    80000162:	ecae                	sd	a1,88(sp)
    SREG x12, 12*REGBYTES(sp)
    80000164:	f0b2                	sd	a2,96(sp)
    SREG x13, 13*REGBYTES(sp)
    80000166:	f4b6                	sd	a3,104(sp)
    SREG x14, 14*REGBYTES(sp)
    80000168:	f8ba                	sd	a4,112(sp)
    SREG x15, 15*REGBYTES(sp)
    8000016a:	fcbe                	sd	a5,120(sp)
    SREG x16, 16*REGBYTES(sp)
    8000016c:	e142                	sd	a6,128(sp)
    SREG x17, 17*REGBYTES(sp)
    8000016e:	e546                	sd	a7,136(sp)
    SREG x18, 18*REGBYTES(sp)
    80000170:	e94a                	sd	s2,144(sp)
    SREG x19, 19*REGBYTES(sp)
    80000172:	ed4e                	sd	s3,152(sp)
    SREG x20, 20*REGBYTES(sp)
    80000174:	f152                	sd	s4,160(sp)
    SREG x21, 21*REGBYTES(sp)
    80000176:	f556                	sd	s5,168(sp)
    SREG x22, 22*REGBYTES(sp)
    80000178:	f95a                	sd	s6,176(sp)
    SREG x23, 23*REGBYTES(sp)
    8000017a:	fd5e                	sd	s7,184(sp)
    SREG x24, 24*REGBYTES(sp)
    8000017c:	e1e2                	sd	s8,192(sp)
    SREG x25, 25*REGBYTES(sp)
    8000017e:	e5e6                	sd	s9,200(sp)
    SREG x26, 26*REGBYTES(sp)
    80000180:	e9ea                	sd	s10,208(sp)
    SREG x27, 27*REGBYTES(sp)
    80000182:	edee                	sd	s11,216(sp)
    SREG x28, 28*REGBYTES(sp)
    80000184:	f1f2                	sd	t3,224(sp)
    SREG x29, 29*REGBYTES(sp)
    80000186:	f5f6                	sd	t4,232(sp)
    SREG x30, 30*REGBYTES(sp)
    80000188:	f9fa                	sd	t5,240(sp)
    SREG x31, 31*REGBYTES(sp)
    8000018a:	fdfe                	sd	t6,248(sp)

    /* Invoke higher-level trap handler */
    csrr a0, mepc
    8000018c:	34102573          	csrr	a0,mepc
    csrr a1, mcause
    80000190:	342025f3          	csrr	a1,mcause
    csrr a2, mtval
    80000194:	34302673          	csrr	a2,mtval
    mv a3, sp
    80000198:	868a                	mv	a3,sp
    call handle_trap
    8000019a:	0f5010ef          	jal	80001a8e <handle_trap>
    csrw mepc, a0
    8000019e:	34151073          	csrw	mepc,a0

    /* Remain in M-mode after return */
    li t0, MSTATUS_MPP
    800001a2:	6289                	lui	t0,0x2
    800001a4:	8002829b          	addiw	t0,t0,-2048 # 1800 <__stack_align+0x17f0>
    csrs mstatus, t0
    800001a8:	3002a073          	csrs	mstatus,t0

    LREG x1, 1*REGBYTES(sp)
    800001ac:	60a2                	ld	ra,8(sp)
    LREG x3, 3*REGBYTES(sp)
    800001ae:	61e2                	ld	gp,24(sp)
    LREG x4, 4*REGBYTES(sp)
    800001b0:	7202                	ld	tp,32(sp)
    LREG x5, 5*REGBYTES(sp)
    800001b2:	72a2                	ld	t0,40(sp)
    LREG x6, 6*REGBYTES(sp)
    800001b4:	7342                	ld	t1,48(sp)
    LREG x7, 7*REGBYTES(sp)
    800001b6:	73e2                	ld	t2,56(sp)
    LREG x8, 8*REGBYTES(sp)
    800001b8:	6406                	ld	s0,64(sp)
    LREG x9, 9*REGBYTES(sp)
    800001ba:	64a6                	ld	s1,72(sp)
    LREG x10, 10*REGBYTES(sp)
    800001bc:	6546                	ld	a0,80(sp)
    LREG x11, 11*REGBYTES(sp)
    800001be:	65e6                	ld	a1,88(sp)
    LREG x12, 12*REGBYTES(sp)
    800001c0:	7606                	ld	a2,96(sp)
    LREG x13, 13*REGBYTES(sp)
    800001c2:	76a6                	ld	a3,104(sp)
    LREG x14, 14*REGBYTES(sp)
    800001c4:	7746                	ld	a4,112(sp)
    LREG x15, 15*REGBYTES(sp)
    800001c6:	77e6                	ld	a5,120(sp)
    LREG x16, 16*REGBYTES(sp)
    800001c8:	680a                	ld	a6,128(sp)
    LREG x17, 17*REGBYTES(sp)
    800001ca:	68aa                	ld	a7,136(sp)
    LREG x18, 18*REGBYTES(sp)
    800001cc:	694a                	ld	s2,144(sp)
    LREG x19, 19*REGBYTES(sp)
    800001ce:	69ea                	ld	s3,152(sp)
    LREG x20, 20*REGBYTES(sp)
    800001d0:	7a0a                	ld	s4,160(sp)
    LREG x21, 21*REGBYTES(sp)
    800001d2:	7aaa                	ld	s5,168(sp)
    LREG x22, 22*REGBYTES(sp)
    800001d4:	7b4a                	ld	s6,176(sp)
    LREG x23, 23*REGBYTES(sp)
    800001d6:	7bea                	ld	s7,184(sp)
    LREG x24, 24*REGBYTES(sp)
    800001d8:	6c0e                	ld	s8,192(sp)
    LREG x25, 25*REGBYTES(sp)
    800001da:	6cae                	ld	s9,200(sp)
    LREG x26, 26*REGBYTES(sp)
    800001dc:	6d4e                	ld	s10,208(sp)
    LREG x27, 27*REGBYTES(sp)
    800001de:	6dee                	ld	s11,216(sp)
    LREG x28, 28*REGBYTES(sp)
    800001e0:	7e0e                	ld	t3,224(sp)
    LREG x29, 29*REGBYTES(sp)
    800001e2:	7eae                	ld	t4,232(sp)
    LREG x30, 30*REGBYTES(sp)
    800001e4:	7f4e                	ld	t5,240(sp)
    LREG x31, 31*REGBYTES(sp)
    800001e6:	7fee                	ld	t6,248(sp)
    /* Restore sp last */
    LREG x2, 2*REGBYTES(sp)
    800001e8:	6142                	ld	sp,16(sp)

    mret
    800001ea:	30200073          	mret

00000000800001ee <_start_main>:
    .endm

    .global _start_main
    .type _start_main, @function
_start_main:
    BARRIER_PASS __boot_sync
    800001ee:	52fd                	li	t0,-1
    800001f0:	0110000f          	fence	w,w
    800001f4:	a651a423          	sw	t0,-1432(gp) # 800021e0 <__boot_sync>
    ENTER main
    800001f8:	4505                	li	a0,1
    800001fa:	00002597          	auipc	a1,0x2
    800001fe:	c6e58593          	addi	a1,a1,-914 # 80001e68 <argv>
    80000202:	8101b603          	ld	a2,-2032(gp) # 80001f88 <environ>
    80000206:	0c6000ef          	jal	800002cc <main>
    8000020a:	1490106f          	j	80001b52 <exit>

000000008000020e <_start_secondary>:

    .global _start_secondary
    .type _start_secondary, @function
_start_secondary:
    /* Synchronize secondary harts */
    BARRIER_WAIT __boot_sync
    8000020e:	a681a283          	lw	t0,-1432(gp) # 800021e0 <__boot_sync>
    80000212:	fe028ee3          	beqz	t0,8000020e <_start_secondary>
    80000216:	0220000f          	fence	r,r
    ENTER __main
    8000021a:	4505                	li	a0,1
    8000021c:	00002597          	auipc	a1,0x2
    80000220:	c4c58593          	addi	a1,a1,-948 # 80001e68 <argv>
    80000224:	8101b603          	ld	a2,-2032(gp) # 80001f88 <environ>
    80000228:	0ad010ef          	jal	80001ad4 <__main>
    8000022c:	1270106f          	j	80001b52 <exit>

0000000080000230 <reg_read8>:
    80000230:	7179                	addi	sp,sp,-48
    80000232:	f422                	sd	s0,40(sp)
    80000234:	1800                	addi	s0,sp,48
    80000236:	fca43c23          	sd	a0,-40(s0)
    8000023a:	fd843783          	ld	a5,-40(s0)
    8000023e:	fef43423          	sd	a5,-24(s0)
    80000242:	fe843783          	ld	a5,-24(s0)
    80000246:	0007c783          	lbu	a5,0(a5)
    8000024a:	0ff7f793          	zext.b	a5,a5
    8000024e:	853e                	mv	a0,a5
    80000250:	7422                	ld	s0,40(sp)
    80000252:	6145                	addi	sp,sp,48
    80000254:	8082                	ret

0000000080000256 <reg_write32>:
    80000256:	7179                	addi	sp,sp,-48
    80000258:	f422                	sd	s0,40(sp)
    8000025a:	1800                	addi	s0,sp,48
    8000025c:	fca43c23          	sd	a0,-40(s0)
    80000260:	87ae                	mv	a5,a1
    80000262:	fcf42a23          	sw	a5,-44(s0)
    80000266:	fd843783          	ld	a5,-40(s0)
    8000026a:	fef43423          	sd	a5,-24(s0)
    8000026e:	fe843783          	ld	a5,-24(s0)
    80000272:	fd442703          	lw	a4,-44(s0)
    80000276:	c398                	sw	a4,0(a5)
    80000278:	0001                	nop
    8000027a:	7422                	ld	s0,40(sp)
    8000027c:	6145                	addi	sp,sp,48
    8000027e:	8082                	ret

0000000080000280 <reg_read32>:
    80000280:	7179                	addi	sp,sp,-48
    80000282:	f422                	sd	s0,40(sp)
    80000284:	1800                	addi	s0,sp,48
    80000286:	fca43c23          	sd	a0,-40(s0)
    8000028a:	fd843783          	ld	a5,-40(s0)
    8000028e:	fef43423          	sd	a5,-24(s0)
    80000292:	fe843783          	ld	a5,-24(s0)
    80000296:	439c                	lw	a5,0(a5)
    80000298:	2781                	sext.w	a5,a5
    8000029a:	853e                	mv	a0,a5
    8000029c:	7422                	ld	s0,40(sp)
    8000029e:	6145                	addi	sp,sp,48
    800002a0:	8082                	ret

00000000800002a2 <ADDER_ref>:
    800002a2:	1101                	addi	sp,sp,-32
    800002a4:	ec22                	sd	s0,24(sp)
    800002a6:	1000                	addi	s0,sp,32
    800002a8:	87aa                	mv	a5,a0
    800002aa:	872e                	mv	a4,a1
    800002ac:	fef42623          	sw	a5,-20(s0)
    800002b0:	87ba                	mv	a5,a4
    800002b2:	fef42423          	sw	a5,-24(s0)
    800002b6:	fec42783          	lw	a5,-20(s0)
    800002ba:	873e                	mv	a4,a5
    800002bc:	fe842783          	lw	a5,-24(s0)
    800002c0:	9fb9                	addw	a5,a5,a4
    800002c2:	2781                	sext.w	a5,a5
    800002c4:	853e                	mv	a0,a5
    800002c6:	6462                	ld	s0,24(sp)
    800002c8:	6105                	addi	sp,sp,32
    800002ca:	8082                	ret

00000000800002cc <main>:
    800002cc:	1101                	addi	sp,sp,-32
    800002ce:	ec06                	sd	ra,24(sp)
    800002d0:	e822                	sd	s0,16(sp)
    800002d2:	1000                	addi	s0,sp,32
    800002d4:	4795                	li	a5,5
    800002d6:	fef42623          	sw	a5,-20(s0)
    800002da:	47a1                	li	a5,8
    800002dc:	fef42423          	sw	a5,-24(s0)
    800002e0:	0001                	nop
    800002e2:	6511                	lui	a0,0x4
    800002e4:	f4dff0ef          	jal	80000230 <reg_read8>
    800002e8:	87aa                	mv	a5,a0
    800002ea:	2781                	sext.w	a5,a5
    800002ec:	8b89                	andi	a5,a5,2
    800002ee:	2781                	sext.w	a5,a5
    800002f0:	dbed                	beqz	a5,800002e2 <main+0x16>
    800002f2:	fec42783          	lw	a5,-20(s0)
    800002f6:	85be                	mv	a1,a5
    800002f8:	6791                	lui	a5,0x4
    800002fa:	00478513          	addi	a0,a5,4 # 4004 <__stack_align+0x3ff4>
    800002fe:	f59ff0ef          	jal	80000256 <reg_write32>
    80000302:	fe842783          	lw	a5,-24(s0)
    80000306:	85be                	mv	a1,a5
    80000308:	6791                	lui	a5,0x4
    8000030a:	00878513          	addi	a0,a5,8 # 4008 <__stack_align+0x3ff8>
    8000030e:	f49ff0ef          	jal	80000256 <reg_write32>
    80000312:	0001                	nop
    80000314:	6511                	lui	a0,0x4
    80000316:	f1bff0ef          	jal	80000230 <reg_read8>
    8000031a:	87aa                	mv	a5,a0
    8000031c:	2781                	sext.w	a5,a5
    8000031e:	8b85                	andi	a5,a5,1
    80000320:	2781                	sext.w	a5,a5
    80000322:	dbed                	beqz	a5,80000314 <main+0x48>
    80000324:	6791                	lui	a5,0x4
    80000326:	00c78513          	addi	a0,a5,12 # 400c <__stack_align+0x3ffc>
    8000032a:	f57ff0ef          	jal	80000280 <reg_read32>
    8000032e:	87aa                	mv	a5,a0
    80000330:	fef42223          	sw	a5,-28(s0)
    80000334:	fe842703          	lw	a4,-24(s0)
    80000338:	fec42783          	lw	a5,-20(s0)
    8000033c:	85ba                	mv	a1,a4
    8000033e:	853e                	mv	a0,a5
    80000340:	f63ff0ef          	jal	800002a2 <ADDER_ref>
    80000344:	87aa                	mv	a5,a0
    80000346:	fef42023          	sw	a5,-32(s0)
    8000034a:	fe442783          	lw	a5,-28(s0)
    8000034e:	873e                	mv	a4,a5
    80000350:	fe042783          	lw	a5,-32(s0)
    80000354:	2701                	sext.w	a4,a4
    80000356:	2781                	sext.w	a5,a5
    80000358:	02f70063          	beq	a4,a5,80000378 <main+0xac>
    8000035c:	fe042703          	lw	a4,-32(s0)
    80000360:	fe442783          	lw	a5,-28(s0)
    80000364:	863a                	mv	a2,a4
    80000366:	85be                	mv	a1,a5
    80000368:	00002517          	auipc	a0,0x2
    8000036c:	9f050513          	addi	a0,a0,-1552 # 80001d58 <__tbss_end+0x4>
    80000370:	048000ef          	jal	800003b8 <iprintf>
    80000374:	4785                	li	a5,1
    80000376:	a819                	j	8000038c <main+0xc0>
    80000378:	fe442783          	lw	a5,-28(s0)
    8000037c:	85be                	mv	a1,a5
    8000037e:	00002517          	auipc	a0,0x2
    80000382:	a1250513          	addi	a0,a0,-1518 # 80001d90 <__tbss_end+0x3c>
    80000386:	032000ef          	jal	800003b8 <iprintf>
    8000038a:	4781                	li	a5,0
    8000038c:	853e                	mv	a0,a5
    8000038e:	60e2                	ld	ra,24(sp)
    80000390:	6442                	ld	s0,16(sp)
    80000392:	6105                	addi	sp,sp,32
    80000394:	8082                	ret

0000000080000396 <_iprintf_r>:
    80000396:	715d                	addi	sp,sp,-80
    80000398:	f032                	sd	a2,32(sp)
    8000039a:	f436                	sd	a3,40(sp)
    8000039c:	f83a                	sd	a4,48(sp)
    8000039e:	fc3e                	sd	a5,56(sp)
    800003a0:	e0c2                	sd	a6,64(sp)
    800003a2:	e4c6                	sd	a7,72(sp)
    800003a4:	862e                	mv	a2,a1
    800003a6:	690c                	ld	a1,16(a0)
    800003a8:	1014                	addi	a3,sp,32
    800003aa:	ec06                	sd	ra,24(sp)
    800003ac:	e436                	sd	a3,8(sp)
    800003ae:	0cc000ef          	jal	8000047a <_vfiprintf_r>
    800003b2:	60e2                	ld	ra,24(sp)
    800003b4:	6161                	addi	sp,sp,80
    800003b6:	8082                	ret

00000000800003b8 <iprintf>:
    800003b8:	711d                	addi	sp,sp,-96
    800003ba:	f832                	sd	a2,48(sp)
    800003bc:	fc36                	sd	a3,56(sp)
    800003be:	e4be                	sd	a5,72(sp)
    800003c0:	f42e                	sd	a1,40(sp)
    800003c2:	e0ba                	sd	a4,64(sp)
    800003c4:	e8c2                	sd	a6,80(sp)
    800003c6:	ecc6                	sd	a7,88(sp)
    800003c8:	00002797          	auipc	a5,0x2
    800003cc:	bb07b783          	ld	a5,-1104(a5) # 80001f78 <_impure_ptr>
    800003d0:	6b8c                	ld	a1,16(a5)
    800003d2:	1034                	addi	a3,sp,40
    800003d4:	862a                	mv	a2,a0
    800003d6:	853e                	mv	a0,a5
    800003d8:	ec06                	sd	ra,24(sp)
    800003da:	e436                	sd	a3,8(sp)
    800003dc:	09e000ef          	jal	8000047a <_vfiprintf_r>
    800003e0:	60e2                	ld	ra,24(sp)
    800003e2:	6125                	addi	sp,sp,96
    800003e4:	8082                	ret

00000000800003e6 <__sfputc_r>:
    800003e6:	465c                	lw	a5,12(a2)
    800003e8:	fff7871b          	addiw	a4,a5,-1
    800003ec:	c658                	sw	a4,12(a2)
    800003ee:	00075a63          	bgez	a4,80000402 <__sfputc_r+0x1c>
    800003f2:	561c                	lw	a5,40(a2)
    800003f4:	00f74563          	blt	a4,a5,800003fe <__sfputc_r+0x18>
    800003f8:	47a9                	li	a5,10
    800003fa:	00f59463          	bne	a1,a5,80000402 <__sfputc_r+0x1c>
    800003fe:	4c10006f          	j	800010be <__swbuf_r>
    80000402:	621c                	ld	a5,0(a2)
    80000404:	852e                	mv	a0,a1
    80000406:	00178713          	addi	a4,a5,1
    8000040a:	e218                	sd	a4,0(a2)
    8000040c:	00b78023          	sb	a1,0(a5)
    80000410:	8082                	ret

0000000080000412 <__sfputs_r>:
    80000412:	7179                	addi	sp,sp,-48
    80000414:	f022                	sd	s0,32(sp)
    80000416:	ec26                	sd	s1,24(sp)
    80000418:	e84a                	sd	s2,16(sp)
    8000041a:	e44e                	sd	s3,8(sp)
    8000041c:	e052                	sd	s4,0(sp)
    8000041e:	f406                	sd	ra,40(sp)
    80000420:	892a                	mv	s2,a0
    80000422:	89ae                	mv	s3,a1
    80000424:	8432                	mv	s0,a2
    80000426:	00d604b3          	add	s1,a2,a3
    8000042a:	5a7d                	li	s4,-1
    8000042c:	00941463          	bne	s0,s1,80000434 <__sfputs_r+0x22>
    80000430:	4501                	li	a0,0
    80000432:	a811                	j	80000446 <__sfputs_r+0x34>
    80000434:	00044583          	lbu	a1,0(s0)
    80000438:	864e                	mv	a2,s3
    8000043a:	854a                	mv	a0,s2
    8000043c:	fabff0ef          	jal	800003e6 <__sfputc_r>
    80000440:	0405                	addi	s0,s0,1
    80000442:	ff4515e3          	bne	a0,s4,8000042c <__sfputs_r+0x1a>
    80000446:	70a2                	ld	ra,40(sp)
    80000448:	7402                	ld	s0,32(sp)
    8000044a:	64e2                	ld	s1,24(sp)
    8000044c:	6942                	ld	s2,16(sp)
    8000044e:	69a2                	ld	s3,8(sp)
    80000450:	6a02                	ld	s4,0(sp)
    80000452:	6145                	addi	sp,sp,48
    80000454:	8082                	ret

0000000080000456 <__sprint_r>:
    80000456:	6a1c                	ld	a5,16(a2)
    80000458:	1141                	addi	sp,sp,-16
    8000045a:	e022                	sd	s0,0(sp)
    8000045c:	e406                	sd	ra,8(sp)
    8000045e:	8432                	mv	s0,a2
    80000460:	cb99                	beqz	a5,80000476 <__sprint_r+0x20>
    80000462:	059000ef          	jal	80000cba <__sfvwrite_r>
    80000466:	00043823          	sd	zero,16(s0)
    8000046a:	60a2                	ld	ra,8(sp)
    8000046c:	00042423          	sw	zero,8(s0)
    80000470:	6402                	ld	s0,0(sp)
    80000472:	0141                	addi	sp,sp,16
    80000474:	8082                	ret
    80000476:	4501                	li	a0,0
    80000478:	bfcd                	j	8000046a <__sprint_r+0x14>

000000008000047a <_vfiprintf_r>:
    8000047a:	7155                	addi	sp,sp,-208
    8000047c:	e1a2                	sd	s0,192(sp)
    8000047e:	fd26                	sd	s1,184(sp)
    80000480:	f94a                	sd	s2,176(sp)
    80000482:	f54e                	sd	s3,168(sp)
    80000484:	f152                	sd	s4,160(sp)
    80000486:	e586                	sd	ra,200(sp)
    80000488:	ed56                	sd	s5,152(sp)
    8000048a:	e95a                	sd	s6,144(sp)
    8000048c:	e55e                	sd	s7,136(sp)
    8000048e:	e162                	sd	s8,128(sp)
    80000490:	fce6                	sd	s9,120(sp)
    80000492:	f8ea                	sd	s10,112(sp)
    80000494:	8a2a                	mv	s4,a0
    80000496:	892e                	mv	s2,a1
    80000498:	84b2                	mv	s1,a2
    8000049a:	8436                	mv	s0,a3
    8000049c:	4981                	li	s3,0
    8000049e:	c509                	beqz	a0,800004a8 <_vfiprintf_r+0x2e>
    800004a0:	613c                	ld	a5,64(a0)
    800004a2:	e399                	bnez	a5,800004a8 <_vfiprintf_r+0x2e>
    800004a4:	7d2000ef          	jal	80000c76 <__sinit>
    800004a8:	01095783          	lhu	a5,16(s2)
    800004ac:	8ba1                	andi	a5,a5,8
    800004ae:	cbe1                	beqz	a5,8000057e <_vfiprintf_r+0x104>
    800004b0:	01893783          	ld	a5,24(s2)
    800004b4:	c7e9                	beqz	a5,8000057e <_vfiprintf_r+0x104>
    800004b6:	02000793          	li	a5,32
    800004ba:	02f104a3          	sb	a5,41(sp)
    800004be:	5afd                	li	s5,-1
    800004c0:	03000793          	li	a5,48
    800004c4:	d202                	sw	zero,36(sp)
    800004c6:	02f10523          	sb	a5,42(sp)
    800004ca:	e422                	sd	s0,8(sp)
    800004cc:	02500b93          	li	s7,37
    800004d0:	020a9c13          	slli	s8,s5,0x20
    800004d4:	00002b17          	auipc	s6,0x2
    800004d8:	8ecb0b13          	addi	s6,s6,-1812 # 80001dc0 <__tbss_end+0x6c>
    800004dc:	4c85                	li	s9,1
    800004de:	8426                	mv	s0,s1
    800004e0:	00044783          	lbu	a5,0(s0)
    800004e4:	c399                	beqz	a5,800004ea <_vfiprintf_r+0x70>
    800004e6:	0d779063          	bne	a5,s7,800005a6 <_vfiprintf_r+0x12c>
    800004ea:	40940d3b          	subw	s10,s0,s1
    800004ee:	000d0e63          	beqz	s10,8000050a <_vfiprintf_r+0x90>
    800004f2:	86ea                	mv	a3,s10
    800004f4:	8626                	mv	a2,s1
    800004f6:	85ca                	mv	a1,s2
    800004f8:	8552                	mv	a0,s4
    800004fa:	f19ff0ef          	jal	80000412 <__sfputs_r>
    800004fe:	1d550963          	beq	a0,s5,800006d0 <_vfiprintf_r+0x256>
    80000502:	5792                	lw	a5,36(sp)
    80000504:	01a787bb          	addw	a5,a5,s10
    80000508:	d23e                	sw	a5,36(sp)
    8000050a:	00044783          	lbu	a5,0(s0)
    8000050e:	1c078163          	beqz	a5,800006d0 <_vfiprintf_r+0x256>
    80000512:	00140493          	addi	s1,s0,1
    80000516:	e862                	sd	s8,16(sp)
    80000518:	ec02                	sd	zero,24(sp)
    8000051a:	040109a3          	sb	zero,83(sp)
    8000051e:	d482                	sw	zero,104(sp)
    80000520:	0004c583          	lbu	a1,0(s1)
    80000524:	4615                	li	a2,5
    80000526:	855a                	mv	a0,s6
    80000528:	50f000ef          	jal	80001236 <memchr>
    8000052c:	47c2                	lw	a5,16(sp)
    8000052e:	00148413          	addi	s0,s1,1
    80000532:	ed25                	bnez	a0,800005aa <_vfiprintf_r+0x130>
    80000534:	0107f713          	andi	a4,a5,16
    80000538:	c709                	beqz	a4,80000542 <_vfiprintf_r+0xc8>
    8000053a:	02000713          	li	a4,32
    8000053e:	04e109a3          	sb	a4,83(sp)
    80000542:	0087f713          	andi	a4,a5,8
    80000546:	c709                	beqz	a4,80000550 <_vfiprintf_r+0xd6>
    80000548:	02b00713          	li	a4,43
    8000054c:	04e109a3          	sb	a4,83(sp)
    80000550:	0004c683          	lbu	a3,0(s1)
    80000554:	02a00713          	li	a4,42
    80000558:	06e68163          	beq	a3,a4,800005ba <_vfiprintf_r+0x140>
    8000055c:	47f2                	lw	a5,28(sp)
    8000055e:	8426                	mv	s0,s1
    80000560:	4681                	li	a3,0
    80000562:	4625                	li	a2,9
    80000564:	4829                	li	a6,10
    80000566:	00044703          	lbu	a4,0(s0)
    8000056a:	00140513          	addi	a0,s0,1
    8000056e:	fd07059b          	addiw	a1,a4,-48
    80000572:	872e                	mv	a4,a1
    80000574:	08b67a63          	bgeu	a2,a1,80000608 <_vfiprintf_r+0x18e>
    80000578:	caa9                	beqz	a3,800005ca <_vfiprintf_r+0x150>
    8000057a:	ce3e                	sw	a5,28(sp)
    8000057c:	a0b9                	j	800005ca <_vfiprintf_r+0x150>
    8000057e:	85ca                	mv	a1,s2
    80000580:	8552                	mv	a0,s4
    80000582:	3e7000ef          	jal	80001168 <__swsetup_r>
    80000586:	d905                	beqz	a0,800004b6 <_vfiprintf_r+0x3c>
    80000588:	557d                	li	a0,-1
    8000058a:	60ae                	ld	ra,200(sp)
    8000058c:	640e                	ld	s0,192(sp)
    8000058e:	74ea                	ld	s1,184(sp)
    80000590:	794a                	ld	s2,176(sp)
    80000592:	79aa                	ld	s3,168(sp)
    80000594:	7a0a                	ld	s4,160(sp)
    80000596:	6aea                	ld	s5,152(sp)
    80000598:	6b4a                	ld	s6,144(sp)
    8000059a:	6baa                	ld	s7,136(sp)
    8000059c:	6c0a                	ld	s8,128(sp)
    8000059e:	7ce6                	ld	s9,120(sp)
    800005a0:	7d46                	ld	s10,112(sp)
    800005a2:	6169                	addi	sp,sp,208
    800005a4:	8082                	ret
    800005a6:	0405                	addi	s0,s0,1
    800005a8:	bf25                	j	800004e0 <_vfiprintf_r+0x66>
    800005aa:	41650533          	sub	a0,a0,s6
    800005ae:	00ac953b          	sllw	a0,s9,a0
    800005b2:	8fc9                	or	a5,a5,a0
    800005b4:	c83e                	sw	a5,16(sp)
    800005b6:	84a2                	mv	s1,s0
    800005b8:	b7a5                	j	80000520 <_vfiprintf_r+0xa6>
    800005ba:	6722                	ld	a4,8(sp)
    800005bc:	00870693          	addi	a3,a4,8
    800005c0:	4318                	lw	a4,0(a4)
    800005c2:	e436                	sd	a3,8(sp)
    800005c4:	02074b63          	bltz	a4,800005fa <_vfiprintf_r+0x180>
    800005c8:	ce3a                	sw	a4,28(sp)
    800005ca:	00044703          	lbu	a4,0(s0)
    800005ce:	02e00793          	li	a5,46
    800005d2:	06f71163          	bne	a4,a5,80000634 <_vfiprintf_r+0x1ba>
    800005d6:	00144703          	lbu	a4,1(s0)
    800005da:	02a00793          	li	a5,42
    800005de:	02f71b63          	bne	a4,a5,80000614 <_vfiprintf_r+0x19a>
    800005e2:	67a2                	ld	a5,8(sp)
    800005e4:	0409                	addi	s0,s0,2
    800005e6:	00878713          	addi	a4,a5,8
    800005ea:	e43a                	sd	a4,8(sp)
    800005ec:	4398                	lw	a4,0(a5)
    800005ee:	87ba                	mv	a5,a4
    800005f0:	00075363          	bgez	a4,800005f6 <_vfiprintf_r+0x17c>
    800005f4:	57fd                	li	a5,-1
    800005f6:	ca3e                	sw	a5,20(sp)
    800005f8:	a835                	j	80000634 <_vfiprintf_r+0x1ba>
    800005fa:	40e0073b          	negw	a4,a4
    800005fe:	0027e793          	ori	a5,a5,2
    80000602:	ce3a                	sw	a4,28(sp)
    80000604:	c83e                	sw	a5,16(sp)
    80000606:	b7d1                	j	800005ca <_vfiprintf_r+0x150>
    80000608:	02f807bb          	mulw	a5,a6,a5
    8000060c:	842a                	mv	s0,a0
    8000060e:	4685                	li	a3,1
    80000610:	9fb9                	addw	a5,a5,a4
    80000612:	bf91                	j	80000566 <_vfiprintf_r+0xec>
    80000614:	0405                	addi	s0,s0,1
    80000616:	ca02                	sw	zero,20(sp)
    80000618:	4681                	li	a3,0
    8000061a:	4781                	li	a5,0
    8000061c:	4625                	li	a2,9
    8000061e:	4829                	li	a6,10
    80000620:	00044703          	lbu	a4,0(s0)
    80000624:	00140513          	addi	a0,s0,1
    80000628:	fd07059b          	addiw	a1,a4,-48
    8000062c:	872e                	mv	a4,a1
    8000062e:	06b67c63          	bgeu	a2,a1,800006a6 <_vfiprintf_r+0x22c>
    80000632:	f2f1                	bnez	a3,800005f6 <_vfiprintf_r+0x17c>
    80000634:	00044583          	lbu	a1,0(s0)
    80000638:	460d                	li	a2,3
    8000063a:	00001517          	auipc	a0,0x1
    8000063e:	79650513          	addi	a0,a0,1942 # 80001dd0 <__tbss_end+0x7c>
    80000642:	3f5000ef          	jal	80001236 <memchr>
    80000646:	cd11                	beqz	a0,80000662 <_vfiprintf_r+0x1e8>
    80000648:	00001797          	auipc	a5,0x1
    8000064c:	78878793          	addi	a5,a5,1928 # 80001dd0 <__tbss_end+0x7c>
    80000650:	8d1d                	sub	a0,a0,a5
    80000652:	47c2                	lw	a5,16(sp)
    80000654:	04000713          	li	a4,64
    80000658:	00a7173b          	sllw	a4,a4,a0
    8000065c:	8fd9                	or	a5,a5,a4
    8000065e:	0405                	addi	s0,s0,1
    80000660:	c83e                	sw	a5,16(sp)
    80000662:	00044583          	lbu	a1,0(s0)
    80000666:	4619                	li	a2,6
    80000668:	00001517          	auipc	a0,0x1
    8000066c:	77050513          	addi	a0,a0,1904 # 80001dd8 <__tbss_end+0x84>
    80000670:	00140493          	addi	s1,s0,1
    80000674:	02b10423          	sb	a1,40(sp)
    80000678:	3bf000ef          	jal	80001236 <memchr>
    8000067c:	c135                	beqz	a0,800006e0 <_vfiprintf_r+0x266>
    8000067e:	00000793          	li	a5,0
    80000682:	eb85                	bnez	a5,800006b2 <_vfiprintf_r+0x238>
    80000684:	4742                	lw	a4,16(sp)
    80000686:	67a2                	ld	a5,8(sp)
    80000688:	10077713          	andi	a4,a4,256
    8000068c:	00878693          	addi	a3,a5,8
    80000690:	c709                	beqz	a4,8000069a <_vfiprintf_r+0x220>
    80000692:	07bd                	addi	a5,a5,15
    80000694:	9bc1                	andi	a5,a5,-16
    80000696:	01078693          	addi	a3,a5,16
    8000069a:	e436                	sd	a3,8(sp)
    8000069c:	5792                	lw	a5,36(sp)
    8000069e:	013787bb          	addw	a5,a5,s3
    800006a2:	d23e                	sw	a5,36(sp)
    800006a4:	bd2d                	j	800004de <_vfiprintf_r+0x64>
    800006a6:	02f807bb          	mulw	a5,a6,a5
    800006aa:	842a                	mv	s0,a0
    800006ac:	4685                	li	a3,1
    800006ae:	9fb9                	addw	a5,a5,a4
    800006b0:	bf85                	j	80000620 <_vfiprintf_r+0x1a6>
    800006b2:	0038                	addi	a4,sp,8
    800006b4:	00000697          	auipc	a3,0x0
    800006b8:	d5e68693          	addi	a3,a3,-674 # 80000412 <__sfputs_r>
    800006bc:	864a                	mv	a2,s2
    800006be:	080c                	addi	a1,sp,16
    800006c0:	8552                	mv	a0,s4
    800006c2:	00000097          	auipc	ra,0x0
    800006c6:	000000e7          	jalr	zero # 0 <__boot_hart>
    800006ca:	89aa                	mv	s3,a0
    800006cc:	fd5518e3          	bne	a0,s5,8000069c <_vfiprintf_r+0x222>
    800006d0:	01095783          	lhu	a5,16(s2)
    800006d4:	0407f793          	andi	a5,a5,64
    800006d8:	ea0798e3          	bnez	a5,80000588 <_vfiprintf_r+0x10e>
    800006dc:	5512                	lw	a0,36(sp)
    800006de:	b575                	j	8000058a <_vfiprintf_r+0x110>
    800006e0:	0038                	addi	a4,sp,8
    800006e2:	00000697          	auipc	a3,0x0
    800006e6:	d3068693          	addi	a3,a3,-720 # 80000412 <__sfputs_r>
    800006ea:	864a                	mv	a2,s2
    800006ec:	080c                	addi	a1,sp,16
    800006ee:	8552                	mv	a0,s4
    800006f0:	134000ef          	jal	80000824 <_printf_i>
    800006f4:	bfd9                	j	800006ca <_vfiprintf_r+0x250>

00000000800006f6 <vfiprintf>:
    800006f6:	86b2                	mv	a3,a2
    800006f8:	862e                	mv	a2,a1
    800006fa:	85aa                	mv	a1,a0
    800006fc:	00002517          	auipc	a0,0x2
    80000700:	87c53503          	ld	a0,-1924(a0) # 80001f78 <_impure_ptr>
    80000704:	bb9d                	j	8000047a <_vfiprintf_r>

0000000080000706 <_printf_common>:
    80000706:	715d                	addi	sp,sp,-80
    80000708:	f052                	sd	s4,32(sp)
    8000070a:	ec56                	sd	s5,24(sp)
    8000070c:	8a36                	mv	s4,a3
    8000070e:	8aba                	mv	s5,a4
    80000710:	4994                	lw	a3,16(a1)
    80000712:	4598                	lw	a4,8(a1)
    80000714:	e0a2                	sd	s0,64(sp)
    80000716:	f84a                	sd	s2,48(sp)
    80000718:	f44e                	sd	s3,40(sp)
    8000071a:	e486                	sd	ra,72(sp)
    8000071c:	fc26                	sd	s1,56(sp)
    8000071e:	e85a                	sd	s6,16(sp)
    80000720:	e45e                	sd	s7,8(sp)
    80000722:	89aa                	mv	s3,a0
    80000724:	842e                	mv	s0,a1
    80000726:	8932                	mv	s2,a2
    80000728:	87ba                	mv	a5,a4
    8000072a:	00e6c363          	blt	a3,a4,80000730 <_printf_common+0x2a>
    8000072e:	87b6                	mv	a5,a3
    80000730:	00f92023          	sw	a5,0(s2)
    80000734:	04344703          	lbu	a4,67(s0)
    80000738:	c701                	beqz	a4,80000740 <_printf_common+0x3a>
    8000073a:	2785                	addiw	a5,a5,1
    8000073c:	00f92023          	sw	a5,0(s2)
    80000740:	401c                	lw	a5,0(s0)
    80000742:	0207f793          	andi	a5,a5,32
    80000746:	c791                	beqz	a5,80000752 <_printf_common+0x4c>
    80000748:	00092783          	lw	a5,0(s2)
    8000074c:	2789                	addiw	a5,a5,2
    8000074e:	00f92023          	sw	a5,0(s2)
    80000752:	4004                	lw	s1,0(s0)
    80000754:	8899                	andi	s1,s1,6
    80000756:	e891                	bnez	s1,8000076a <_printf_common+0x64>
    80000758:	01940b13          	addi	s6,s0,25
    8000075c:	5bfd                	li	s7,-1
    8000075e:	445c                	lw	a5,12(s0)
    80000760:	00092703          	lw	a4,0(s2)
    80000764:	9f99                	subw	a5,a5,a4
    80000766:	06f4c063          	blt	s1,a5,800007c6 <_printf_common+0xc0>
    8000076a:	04344783          	lbu	a5,67(s0)
    8000076e:	00f03633          	snez	a2,a5
    80000772:	00f036b3          	snez	a3,a5
    80000776:	401c                	lw	a5,0(s0)
    80000778:	0207f793          	andi	a5,a5,32
    8000077c:	ebb5                	bnez	a5,800007f0 <_printf_common+0xea>
    8000077e:	04340613          	addi	a2,s0,67
    80000782:	85d2                	mv	a1,s4
    80000784:	854e                	mv	a0,s3
    80000786:	9a82                	jalr	s5
    80000788:	57fd                	li	a5,-1
    8000078a:	04f50563          	beq	a0,a5,800007d4 <_printf_common+0xce>
    8000078e:	401c                	lw	a5,0(s0)
    80000790:	4711                	li	a4,4
    80000792:	4481                	li	s1,0
    80000794:	8b99                	andi	a5,a5,6
    80000796:	00e79b63          	bne	a5,a4,800007ac <_printf_common+0xa6>
    8000079a:	00092783          	lw	a5,0(s2)
    8000079e:	4444                	lw	s1,12(s0)
    800007a0:	9c9d                	subw	s1,s1,a5
    800007a2:	02049793          	slli	a5,s1,0x20
    800007a6:	0007d363          	bgez	a5,800007ac <_printf_common+0xa6>
    800007aa:	4481                	li	s1,0
    800007ac:	441c                	lw	a5,8(s0)
    800007ae:	4818                	lw	a4,16(s0)
    800007b0:	00f75463          	bge	a4,a5,800007b8 <_printf_common+0xb2>
    800007b4:	9f99                	subw	a5,a5,a4
    800007b6:	9cbd                	addw	s1,s1,a5
    800007b8:	4901                	li	s2,0
    800007ba:	0469                	addi	s0,s0,26
    800007bc:	5b7d                	li	s6,-1
    800007be:	05249a63          	bne	s1,s2,80000812 <_printf_common+0x10c>
    800007c2:	4501                	li	a0,0
    800007c4:	a809                	j	800007d6 <_printf_common+0xd0>
    800007c6:	4685                	li	a3,1
    800007c8:	865a                	mv	a2,s6
    800007ca:	85d2                	mv	a1,s4
    800007cc:	854e                	mv	a0,s3
    800007ce:	9a82                	jalr	s5
    800007d0:	01751e63          	bne	a0,s7,800007ec <_printf_common+0xe6>
    800007d4:	557d                	li	a0,-1
    800007d6:	60a6                	ld	ra,72(sp)
    800007d8:	6406                	ld	s0,64(sp)
    800007da:	74e2                	ld	s1,56(sp)
    800007dc:	7942                	ld	s2,48(sp)
    800007de:	79a2                	ld	s3,40(sp)
    800007e0:	7a02                	ld	s4,32(sp)
    800007e2:	6ae2                	ld	s5,24(sp)
    800007e4:	6b42                	ld	s6,16(sp)
    800007e6:	6ba2                	ld	s7,8(sp)
    800007e8:	6161                	addi	sp,sp,80
    800007ea:	8082                	ret
    800007ec:	2485                	addiw	s1,s1,1
    800007ee:	bf85                	j	8000075e <_printf_common+0x58>
    800007f0:	00d407b3          	add	a5,s0,a3
    800007f4:	03000693          	li	a3,48
    800007f8:	04d781a3          	sb	a3,67(a5)
    800007fc:	0016071b          	addiw	a4,a2,1
    80000800:	0026069b          	addiw	a3,a2,2
    80000804:	04544603          	lbu	a2,69(s0)
    80000808:	00e407b3          	add	a5,s0,a4
    8000080c:	04c781a3          	sb	a2,67(a5)
    80000810:	b7bd                	j	8000077e <_printf_common+0x78>
    80000812:	4685                	li	a3,1
    80000814:	8622                	mv	a2,s0
    80000816:	85d2                	mv	a1,s4
    80000818:	854e                	mv	a0,s3
    8000081a:	9a82                	jalr	s5
    8000081c:	fb650ce3          	beq	a0,s6,800007d4 <_printf_common+0xce>
    80000820:	2905                	addiw	s2,s2,1
    80000822:	bf71                	j	800007be <_printf_common+0xb8>

0000000080000824 <_printf_i>:
    80000824:	715d                	addi	sp,sp,-80
    80000826:	e0a2                	sd	s0,64(sp)
    80000828:	f84a                	sd	s2,48(sp)
    8000082a:	f44e                	sd	s3,40(sp)
    8000082c:	f052                	sd	s4,32(sp)
    8000082e:	e486                	sd	ra,72(sp)
    80000830:	fc26                	sd	s1,56(sp)
    80000832:	ec56                	sd	s5,24(sp)
    80000834:	e85a                	sd	s6,16(sp)
    80000836:	0185c803          	lbu	a6,24(a1)
    8000083a:	07800793          	li	a5,120
    8000083e:	892a                	mv	s2,a0
    80000840:	842e                	mv	s0,a1
    80000842:	89b2                	mv	s3,a2
    80000844:	8a36                	mv	s4,a3
    80000846:	0307e263          	bltu	a5,a6,8000086a <_printf_i+0x46>
    8000084a:	06200793          	li	a5,98
    8000084e:	04358693          	addi	a3,a1,67
    80000852:	0307e163          	bltu	a5,a6,80000874 <_printf_i+0x50>
    80000856:	1c080663          	beqz	a6,80000a22 <_printf_i+0x1fe>
    8000085a:	05800793          	li	a5,88
    8000085e:	00001617          	auipc	a2,0x1
    80000862:	58260613          	addi	a2,a2,1410 # 80001de0 <__tbss_end+0x8c>
    80000866:	14f80a63          	beq	a6,a5,800009ba <_printf_i+0x196>
    8000086a:	04240493          	addi	s1,s0,66
    8000086e:	05040123          	sb	a6,66(s0)
    80000872:	a815                	j	800008a6 <_printf_i+0x82>
    80000874:	f9d8079b          	addiw	a5,a6,-99
    80000878:	0ff7f793          	zext.b	a5,a5
    8000087c:	4655                	li	a2,21
    8000087e:	fef666e3          	bltu	a2,a5,8000086a <_printf_i+0x46>
    80000882:	00001617          	auipc	a2,0x1
    80000886:	58a60613          	addi	a2,a2,1418 # 80001e0c <__tbss_end+0xb8>
    8000088a:	078a                	slli	a5,a5,0x2
    8000088c:	97b2                	add	a5,a5,a2
    8000088e:	439c                	lw	a5,0(a5)
    80000890:	97b2                	add	a5,a5,a2
    80000892:	8782                	jr	a5
    80000894:	631c                	ld	a5,0(a4)
    80000896:	04258493          	addi	s1,a1,66
    8000089a:	00878693          	addi	a3,a5,8
    8000089e:	439c                	lw	a5,0(a5)
    800008a0:	e314                	sd	a3,0(a4)
    800008a2:	04f58123          	sb	a5,66(a1)
    800008a6:	4785                	li	a5,1
    800008a8:	aa4d                	j	80000a5a <_printf_i+0x236>
    800008aa:	419c                	lw	a5,0(a1)
    800008ac:	6308                	ld	a0,0(a4)
    800008ae:	0807f613          	andi	a2,a5,128
    800008b2:	00850593          	addi	a1,a0,8
    800008b6:	c20d                	beqz	a2,800008d8 <_printf_i+0xb4>
    800008b8:	611c                	ld	a5,0(a0)
    800008ba:	e30c                	sd	a1,0(a4)
    800008bc:	0007d863          	bgez	a5,800008cc <_printf_i+0xa8>
    800008c0:	02d00713          	li	a4,45
    800008c4:	40f007b3          	neg	a5,a5
    800008c8:	04e401a3          	sb	a4,67(s0)
    800008cc:	00001617          	auipc	a2,0x1
    800008d0:	51460613          	addi	a2,a2,1300 # 80001de0 <__tbss_end+0x8c>
    800008d4:	4829                	li	a6,10
    800008d6:	a83d                	j	80000914 <_printf_i+0xf0>
    800008d8:	0407f613          	andi	a2,a5,64
    800008dc:	411c                	lw	a5,0(a0)
    800008de:	e30c                	sd	a1,0(a4)
    800008e0:	de71                	beqz	a2,800008bc <_printf_i+0x98>
    800008e2:	0107979b          	slliw	a5,a5,0x10
    800008e6:	4107d79b          	sraiw	a5,a5,0x10
    800008ea:	bfc9                	j	800008bc <_printf_i+0x98>
    800008ec:	4190                	lw	a2,0(a1)
    800008ee:	631c                	ld	a5,0(a4)
    800008f0:	08067513          	andi	a0,a2,128
    800008f4:	00878593          	addi	a1,a5,8
    800008f8:	cd41                	beqz	a0,80000990 <_printf_i+0x16c>
    800008fa:	639c                	ld	a5,0(a5)
    800008fc:	e30c                	sd	a1,0(a4)
    800008fe:	06f00713          	li	a4,111
    80000902:	00001617          	auipc	a2,0x1
    80000906:	4de60613          	addi	a2,a2,1246 # 80001de0 <__tbss_end+0x8c>
    8000090a:	0ee81e63          	bne	a6,a4,80000a06 <_printf_i+0x1e2>
    8000090e:	4821                	li	a6,8
    80000910:	040401a3          	sb	zero,67(s0)
    80000914:	4058                	lw	a4,4(s0)
    80000916:	c418                	sw	a4,8(s0)
    80000918:	00074563          	bltz	a4,80000922 <_printf_i+0xfe>
    8000091c:	400c                	lw	a1,0(s0)
    8000091e:	99ed                	andi	a1,a1,-5
    80000920:	c00c                	sw	a1,0(s0)
    80000922:	e399                	bnez	a5,80000928 <_printf_i+0x104>
    80000924:	84b6                	mv	s1,a3
    80000926:	cf19                	beqz	a4,80000944 <_printf_i+0x120>
    80000928:	84b6                	mv	s1,a3
    8000092a:	0307f733          	remu	a4,a5,a6
    8000092e:	14fd                	addi	s1,s1,-1
    80000930:	9732                	add	a4,a4,a2
    80000932:	00074703          	lbu	a4,0(a4)
    80000936:	00e48023          	sb	a4,0(s1)
    8000093a:	873e                	mv	a4,a5
    8000093c:	0307d7b3          	divu	a5,a5,a6
    80000940:	ff0775e3          	bgeu	a4,a6,8000092a <_printf_i+0x106>
    80000944:	47a1                	li	a5,8
    80000946:	00f81e63          	bne	a6,a5,80000962 <_printf_i+0x13e>
    8000094a:	401c                	lw	a5,0(s0)
    8000094c:	8b85                	andi	a5,a5,1
    8000094e:	cb91                	beqz	a5,80000962 <_printf_i+0x13e>
    80000950:	4058                	lw	a4,4(s0)
    80000952:	481c                	lw	a5,16(s0)
    80000954:	00e7c763          	blt	a5,a4,80000962 <_printf_i+0x13e>
    80000958:	03000793          	li	a5,48
    8000095c:	fef48fa3          	sb	a5,-1(s1)
    80000960:	14fd                	addi	s1,s1,-1
    80000962:	8e85                	sub	a3,a3,s1
    80000964:	c814                	sw	a3,16(s0)
    80000966:	8752                	mv	a4,s4
    80000968:	86ce                	mv	a3,s3
    8000096a:	0070                	addi	a2,sp,12
    8000096c:	85a2                	mv	a1,s0
    8000096e:	854a                	mv	a0,s2
    80000970:	d97ff0ef          	jal	80000706 <_printf_common>
    80000974:	5afd                	li	s5,-1
    80000976:	0f551663          	bne	a0,s5,80000a62 <_printf_i+0x23e>
    8000097a:	557d                	li	a0,-1
    8000097c:	60a6                	ld	ra,72(sp)
    8000097e:	6406                	ld	s0,64(sp)
    80000980:	74e2                	ld	s1,56(sp)
    80000982:	7942                	ld	s2,48(sp)
    80000984:	79a2                	ld	s3,40(sp)
    80000986:	7a02                	ld	s4,32(sp)
    80000988:	6ae2                	ld	s5,24(sp)
    8000098a:	6b42                	ld	s6,16(sp)
    8000098c:	6161                	addi	sp,sp,80
    8000098e:	8082                	ret
    80000990:	439c                	lw	a5,0(a5)
    80000992:	04067613          	andi	a2,a2,64
    80000996:	e30c                	sd	a1,0(a4)
    80000998:	c601                	beqz	a2,800009a0 <_printf_i+0x17c>
    8000099a:	17c2                	slli	a5,a5,0x30
    8000099c:	93c1                	srli	a5,a5,0x30
    8000099e:	b785                	j	800008fe <_printf_i+0xda>
    800009a0:	1782                	slli	a5,a5,0x20
    800009a2:	9381                	srli	a5,a5,0x20
    800009a4:	bfa9                	j	800008fe <_printf_i+0xda>
    800009a6:	419c                	lw	a5,0(a1)
    800009a8:	0a07e793          	ori	a5,a5,160
    800009ac:	c19c                	sw	a5,0(a1)
    800009ae:	07800813          	li	a6,120
    800009b2:	00001617          	auipc	a2,0x1
    800009b6:	44660613          	addi	a2,a2,1094 # 80001df8 <__tbss_end+0xa4>
    800009ba:	050402a3          	sb	a6,69(s0)
    800009be:	400c                	lw	a1,0(s0)
    800009c0:	631c                	ld	a5,0(a4)
    800009c2:	0805f813          	andi	a6,a1,128
    800009c6:	00878513          	addi	a0,a5,8
    800009ca:	00080d63          	beqz	a6,800009e4 <_printf_i+0x1c0>
    800009ce:	639c                	ld	a5,0(a5)
    800009d0:	e308                	sd	a0,0(a4)
    800009d2:	0015f713          	andi	a4,a1,1
    800009d6:	c701                	beqz	a4,800009de <_printf_i+0x1ba>
    800009d8:	0205e593          	ori	a1,a1,32
    800009dc:	c00c                	sw	a1,0(s0)
    800009de:	cf99                	beqz	a5,800009fc <_printf_i+0x1d8>
    800009e0:	4841                	li	a6,16
    800009e2:	b73d                	j	80000910 <_printf_i+0xec>
    800009e4:	439c                	lw	a5,0(a5)
    800009e6:	0405f813          	andi	a6,a1,64
    800009ea:	e308                	sd	a0,0(a4)
    800009ec:	00080563          	beqz	a6,800009f6 <_printf_i+0x1d2>
    800009f0:	17c2                	slli	a5,a5,0x30
    800009f2:	93c1                	srli	a5,a5,0x30
    800009f4:	bff9                	j	800009d2 <_printf_i+0x1ae>
    800009f6:	1782                	slli	a5,a5,0x20
    800009f8:	9381                	srli	a5,a5,0x20
    800009fa:	bfe1                	j	800009d2 <_printf_i+0x1ae>
    800009fc:	4018                	lw	a4,0(s0)
    800009fe:	fdf77713          	andi	a4,a4,-33
    80000a02:	c018                	sw	a4,0(s0)
    80000a04:	bff1                	j	800009e0 <_printf_i+0x1bc>
    80000a06:	4829                	li	a6,10
    80000a08:	b721                	j	80000910 <_printf_i+0xec>
    80000a0a:	4190                	lw	a2,0(a1)
    80000a0c:	631c                	ld	a5,0(a4)
    80000a0e:	49cc                	lw	a1,20(a1)
    80000a10:	08067813          	andi	a6,a2,128
    80000a14:	00878513          	addi	a0,a5,8
    80000a18:	00080963          	beqz	a6,80000a2a <_printf_i+0x206>
    80000a1c:	e308                	sd	a0,0(a4)
    80000a1e:	639c                	ld	a5,0(a5)
    80000a20:	e38c                	sd	a1,0(a5)
    80000a22:	00042823          	sw	zero,16(s0)
    80000a26:	84b6                	mv	s1,a3
    80000a28:	bf3d                	j	80000966 <_printf_i+0x142>
    80000a2a:	e308                	sd	a0,0(a4)
    80000a2c:	04067613          	andi	a2,a2,64
    80000a30:	639c                	ld	a5,0(a5)
    80000a32:	c601                	beqz	a2,80000a3a <_printf_i+0x216>
    80000a34:	00b79023          	sh	a1,0(a5)
    80000a38:	b7ed                	j	80000a22 <_printf_i+0x1fe>
    80000a3a:	c38c                	sw	a1,0(a5)
    80000a3c:	b7dd                	j	80000a22 <_printf_i+0x1fe>
    80000a3e:	631c                	ld	a5,0(a4)
    80000a40:	41d0                	lw	a2,4(a1)
    80000a42:	4581                	li	a1,0
    80000a44:	00878693          	addi	a3,a5,8
    80000a48:	e314                	sd	a3,0(a4)
    80000a4a:	6384                	ld	s1,0(a5)
    80000a4c:	8526                	mv	a0,s1
    80000a4e:	7e8000ef          	jal	80001236 <memchr>
    80000a52:	c119                	beqz	a0,80000a58 <_printf_i+0x234>
    80000a54:	8d05                	sub	a0,a0,s1
    80000a56:	c048                	sw	a0,4(s0)
    80000a58:	405c                	lw	a5,4(s0)
    80000a5a:	c81c                	sw	a5,16(s0)
    80000a5c:	040401a3          	sb	zero,67(s0)
    80000a60:	b719                	j	80000966 <_printf_i+0x142>
    80000a62:	4814                	lw	a3,16(s0)
    80000a64:	8626                	mv	a2,s1
    80000a66:	85ce                	mv	a1,s3
    80000a68:	854a                	mv	a0,s2
    80000a6a:	9a02                	jalr	s4
    80000a6c:	f15507e3          	beq	a0,s5,8000097a <_printf_i+0x156>
    80000a70:	401c                	lw	a5,0(s0)
    80000a72:	8b89                	andi	a5,a5,2
    80000a74:	eb85                	bnez	a5,80000aa4 <_printf_i+0x280>
    80000a76:	4458                	lw	a4,12(s0)
    80000a78:	47b2                	lw	a5,12(sp)
    80000a7a:	0007051b          	sext.w	a0,a4
    80000a7e:	eef75fe3          	bge	a4,a5,8000097c <_printf_i+0x158>
    80000a82:	0007851b          	sext.w	a0,a5
    80000a86:	bddd                	j	8000097c <_printf_i+0x158>
    80000a88:	4685                	li	a3,1
    80000a8a:	8656                	mv	a2,s5
    80000a8c:	85ce                	mv	a1,s3
    80000a8e:	854a                	mv	a0,s2
    80000a90:	9a02                	jalr	s4
    80000a92:	ef6504e3          	beq	a0,s6,8000097a <_printf_i+0x156>
    80000a96:	2485                	addiw	s1,s1,1
    80000a98:	445c                	lw	a5,12(s0)
    80000a9a:	4732                	lw	a4,12(sp)
    80000a9c:	9f99                	subw	a5,a5,a4
    80000a9e:	fef4c5e3          	blt	s1,a5,80000a88 <_printf_i+0x264>
    80000aa2:	bfd1                	j	80000a76 <_printf_i+0x252>
    80000aa4:	4481                	li	s1,0
    80000aa6:	01940a93          	addi	s5,s0,25
    80000aaa:	5b7d                	li	s6,-1
    80000aac:	b7f5                	j	80000a98 <_printf_i+0x274>

0000000080000aae <__fp_lock>:
    80000aae:	4501                	li	a0,0
    80000ab0:	8082                	ret

0000000080000ab2 <std>:
    80000ab2:	1141                	addi	sp,sp,-16
    80000ab4:	e022                	sd	s0,0(sp)
    80000ab6:	e406                	sd	ra,8(sp)
    80000ab8:	842a                	mv	s0,a0
    80000aba:	00b51823          	sh	a1,16(a0)
    80000abe:	00c51923          	sh	a2,18(a0)
    80000ac2:	00053023          	sd	zero,0(a0)
    80000ac6:	00053423          	sd	zero,8(a0)
    80000aca:	0a052623          	sw	zero,172(a0)
    80000ace:	00053c23          	sd	zero,24(a0)
    80000ad2:	02052023          	sw	zero,32(a0)
    80000ad6:	02052423          	sw	zero,40(a0)
    80000ada:	4621                	li	a2,8
    80000adc:	4581                	li	a1,0
    80000ade:	0a450513          	addi	a0,a0,164
    80000ae2:	111000ef          	jal	800013f2 <memset>
    80000ae6:	00000797          	auipc	a5,0x0
    80000aea:	51478793          	addi	a5,a5,1300 # 80000ffa <__sread>
    80000aee:	e03c                	sd	a5,64(s0)
    80000af0:	00000797          	auipc	a5,0x0
    80000af4:	54078793          	addi	a5,a5,1344 # 80001030 <__swrite>
    80000af8:	e43c                	sd	a5,72(s0)
    80000afa:	00000797          	auipc	a5,0x0
    80000afe:	58678793          	addi	a5,a5,1414 # 80001080 <__sseek>
    80000b02:	e83c                	sd	a5,80(s0)
    80000b04:	00000797          	auipc	a5,0x0
    80000b08:	5b478793          	addi	a5,a5,1460 # 800010b8 <__sclose>
    80000b0c:	60a2                	ld	ra,8(sp)
    80000b0e:	fc00                	sd	s0,56(s0)
    80000b10:	ec3c                	sd	a5,88(s0)
    80000b12:	6402                	ld	s0,0(sp)
    80000b14:	0141                	addi	sp,sp,16
    80000b16:	8082                	ret

0000000080000b18 <stdio_exit_handler>:
    80000b18:	00001617          	auipc	a2,0x1
    80000b1c:	44860613          	addi	a2,a2,1096 # 80001f60 <__sglue>
    80000b20:	00001597          	auipc	a1,0x1
    80000b24:	ce458593          	addi	a1,a1,-796 # 80001804 <_fflush_r>
    80000b28:	00001517          	auipc	a0,0x1
    80000b2c:	3a850513          	addi	a0,a0,936 # 80001ed0 <_impure_data>
    80000b30:	a185                	j	80000f90 <_fwalk_sglue>

0000000080000b32 <cleanup_stdio>:
    80000b32:	650c                	ld	a1,8(a0)
    80000b34:	1141                	addi	sp,sp,-16
    80000b36:	e022                	sd	s0,0(sp)
    80000b38:	e406                	sd	ra,8(sp)
    80000b3a:	00001797          	auipc	a5,0x1
    80000b3e:	49678793          	addi	a5,a5,1174 # 80001fd0 <__sf>
    80000b42:	842a                	mv	s0,a0
    80000b44:	00f58463          	beq	a1,a5,80000b4c <cleanup_stdio+0x1a>
    80000b48:	4bd000ef          	jal	80001804 <_fflush_r>
    80000b4c:	680c                	ld	a1,16(s0)
    80000b4e:	00001797          	auipc	a5,0x1
    80000b52:	53278793          	addi	a5,a5,1330 # 80002080 <__sf+0xb0>
    80000b56:	00f58563          	beq	a1,a5,80000b60 <cleanup_stdio+0x2e>
    80000b5a:	8522                	mv	a0,s0
    80000b5c:	4a9000ef          	jal	80001804 <_fflush_r>
    80000b60:	6c0c                	ld	a1,24(s0)
    80000b62:	9b818793          	addi	a5,gp,-1608 # 80002130 <__sf+0x160>
    80000b66:	00f58863          	beq	a1,a5,80000b76 <cleanup_stdio+0x44>
    80000b6a:	8522                	mv	a0,s0
    80000b6c:	6402                	ld	s0,0(sp)
    80000b6e:	60a2                	ld	ra,8(sp)
    80000b70:	0141                	addi	sp,sp,16
    80000b72:	4930006f          	j	80001804 <_fflush_r>
    80000b76:	60a2                	ld	ra,8(sp)
    80000b78:	6402                	ld	s0,0(sp)
    80000b7a:	0141                	addi	sp,sp,16
    80000b7c:	8082                	ret

0000000080000b7e <global_stdio_init.part.0>:
    80000b7e:	1141                	addi	sp,sp,-16
    80000b80:	00000797          	auipc	a5,0x0
    80000b84:	f9878793          	addi	a5,a5,-104 # 80000b18 <stdio_exit_handler>
    80000b88:	4601                	li	a2,0
    80000b8a:	4591                	li	a1,4
    80000b8c:	00001517          	auipc	a0,0x1
    80000b90:	44450513          	addi	a0,a0,1092 # 80001fd0 <__sf>
    80000b94:	e406                	sd	ra,8(sp)
    80000b96:	82f1b023          	sd	a5,-2016(gp) # 80001f98 <__stdio_exit_handler>
    80000b9a:	f19ff0ef          	jal	80000ab2 <std>
    80000b9e:	4605                	li	a2,1
    80000ba0:	45a5                	li	a1,9
    80000ba2:	00001517          	auipc	a0,0x1
    80000ba6:	4de50513          	addi	a0,a0,1246 # 80002080 <__sf+0xb0>
    80000baa:	f09ff0ef          	jal	80000ab2 <std>
    80000bae:	60a2                	ld	ra,8(sp)
    80000bb0:	4609                	li	a2,2
    80000bb2:	45c9                	li	a1,18
    80000bb4:	9b818513          	addi	a0,gp,-1608 # 80002130 <__sf+0x160>
    80000bb8:	0141                	addi	sp,sp,16
    80000bba:	bde5                	j	80000ab2 <std>

0000000080000bbc <__fp_unlock>:
    80000bbc:	4501                	li	a0,0
    80000bbe:	8082                	ret

0000000080000bc0 <__sfp>:
    80000bc0:	1101                	addi	sp,sp,-32
    80000bc2:	e04a                	sd	s2,0(sp)
    80000bc4:	ec06                	sd	ra,24(sp)
    80000bc6:	e822                	sd	s0,16(sp)
    80000bc8:	e426                	sd	s1,8(sp)
    80000bca:	8201b783          	ld	a5,-2016(gp) # 80001f98 <__stdio_exit_handler>
    80000bce:	892a                	mv	s2,a0
    80000bd0:	e399                	bnez	a5,80000bd6 <__sfp+0x16>
    80000bd2:	fadff0ef          	jal	80000b7e <global_stdio_init.part.0>
    80000bd6:	00001497          	auipc	s1,0x1
    80000bda:	38a48493          	addi	s1,s1,906 # 80001f60 <__sglue>
    80000bde:	6880                	ld	s0,16(s1)
    80000be0:	449c                	lw	a5,8(s1)
    80000be2:	37fd                	addiw	a5,a5,-1
    80000be4:	0207d163          	bgez	a5,80000c06 <__sfp+0x46>
    80000be8:	609c                	ld	a5,0(s1)
    80000bea:	e7c1                	bnez	a5,80000c72 <__sfp+0xb2>
    80000bec:	2d800593          	li	a1,728
    80000bf0:	854a                	mv	a0,s2
    80000bf2:	121000ef          	jal	80001512 <_malloc_r>
    80000bf6:	842a                	mv	s0,a0
    80000bf8:	e12d                	bnez	a0,80000c5a <__sfp+0x9a>
    80000bfa:	0004b023          	sd	zero,0(s1)
    80000bfe:	47b1                	li	a5,12
    80000c00:	00f92023          	sw	a5,0(s2)
    80000c04:	a089                	j	80000c46 <__sfp+0x86>
    80000c06:	01041703          	lh	a4,16(s0)
    80000c0a:	e729                	bnez	a4,80000c54 <__sfp+0x94>
    80000c0c:	77c1                	lui	a5,0xffff0
    80000c0e:	0785                	addi	a5,a5,1 # ffffffffffff0001 <__heap_end+0xffffffff7ffcd001>
    80000c10:	0a042623          	sw	zero,172(s0)
    80000c14:	00043023          	sd	zero,0(s0)
    80000c18:	00043423          	sd	zero,8(s0)
    80000c1c:	c81c                	sw	a5,16(s0)
    80000c1e:	00043c23          	sd	zero,24(s0)
    80000c22:	02042023          	sw	zero,32(s0)
    80000c26:	02042423          	sw	zero,40(s0)
    80000c2a:	4621                	li	a2,8
    80000c2c:	4581                	li	a1,0
    80000c2e:	0a440513          	addi	a0,s0,164
    80000c32:	7c0000ef          	jal	800013f2 <memset>
    80000c36:	06043023          	sd	zero,96(s0)
    80000c3a:	06042423          	sw	zero,104(s0)
    80000c3e:	08043023          	sd	zero,128(s0)
    80000c42:	08042423          	sw	zero,136(s0)
    80000c46:	60e2                	ld	ra,24(sp)
    80000c48:	8522                	mv	a0,s0
    80000c4a:	6442                	ld	s0,16(sp)
    80000c4c:	64a2                	ld	s1,8(sp)
    80000c4e:	6902                	ld	s2,0(sp)
    80000c50:	6105                	addi	sp,sp,32
    80000c52:	8082                	ret
    80000c54:	0b040413          	addi	s0,s0,176
    80000c58:	b769                	j	80000be2 <__sfp+0x22>
    80000c5a:	4791                	li	a5,4
    80000c5c:	00053023          	sd	zero,0(a0)
    80000c60:	c51c                	sw	a5,8(a0)
    80000c62:	0561                	addi	a0,a0,24
    80000c64:	e808                	sd	a0,16(s0)
    80000c66:	2c000613          	li	a2,704
    80000c6a:	4581                	li	a1,0
    80000c6c:	786000ef          	jal	800013f2 <memset>
    80000c70:	e080                	sd	s0,0(s1)
    80000c72:	6084                	ld	s1,0(s1)
    80000c74:	b7ad                	j	80000bde <__sfp+0x1e>

0000000080000c76 <__sinit>:
    80000c76:	613c                	ld	a5,64(a0)
    80000c78:	eb91                	bnez	a5,80000c8c <__sinit+0x16>
    80000c7a:	00000797          	auipc	a5,0x0
    80000c7e:	eb878793          	addi	a5,a5,-328 # 80000b32 <cleanup_stdio>
    80000c82:	e13c                	sd	a5,64(a0)
    80000c84:	8201b783          	ld	a5,-2016(gp) # 80001f98 <__stdio_exit_handler>
    80000c88:	e391                	bnez	a5,80000c8c <__sinit+0x16>
    80000c8a:	bdd5                	j	80000b7e <global_stdio_init.part.0>
    80000c8c:	8082                	ret

0000000080000c8e <__sfp_lock_acquire>:
    80000c8e:	8082                	ret

0000000080000c90 <__sfp_lock_release>:
    80000c90:	8082                	ret

0000000080000c92 <__fp_lock_all>:
    80000c92:	00001617          	auipc	a2,0x1
    80000c96:	2ce60613          	addi	a2,a2,718 # 80001f60 <__sglue>
    80000c9a:	00000597          	auipc	a1,0x0
    80000c9e:	e1458593          	addi	a1,a1,-492 # 80000aae <__fp_lock>
    80000ca2:	4501                	li	a0,0
    80000ca4:	a4f5                	j	80000f90 <_fwalk_sglue>

0000000080000ca6 <__fp_unlock_all>:
    80000ca6:	00001617          	auipc	a2,0x1
    80000caa:	2ba60613          	addi	a2,a2,698 # 80001f60 <__sglue>
    80000cae:	00000597          	auipc	a1,0x0
    80000cb2:	f0e58593          	addi	a1,a1,-242 # 80000bbc <__fp_unlock>
    80000cb6:	4501                	li	a0,0
    80000cb8:	ace1                	j	80000f90 <_fwalk_sglue>

0000000080000cba <__sfvwrite_r>:
    80000cba:	6a1c                	ld	a5,16(a2)
    80000cbc:	e399                	bnez	a5,80000cc2 <__sfvwrite_r+0x8>
    80000cbe:	4501                	li	a0,0
    80000cc0:	8082                	ret
    80000cc2:	0105d783          	lhu	a5,16(a1)
    80000cc6:	7159                	addi	sp,sp,-112
    80000cc8:	f0a2                	sd	s0,96(sp)
    80000cca:	e8ca                	sd	s2,80(sp)
    80000ccc:	e0d2                	sd	s4,64(sp)
    80000cce:	f486                	sd	ra,104(sp)
    80000cd0:	eca6                	sd	s1,88(sp)
    80000cd2:	e4ce                	sd	s3,72(sp)
    80000cd4:	fc56                	sd	s5,56(sp)
    80000cd6:	f85a                	sd	s6,48(sp)
    80000cd8:	f45e                	sd	s7,40(sp)
    80000cda:	f062                	sd	s8,32(sp)
    80000cdc:	ec66                	sd	s9,24(sp)
    80000cde:	e86a                	sd	s10,16(sp)
    80000ce0:	e46e                	sd	s11,8(sp)
    80000ce2:	8ba1                	andi	a5,a5,8
    80000ce4:	892a                	mv	s2,a0
    80000ce6:	842e                	mv	s0,a1
    80000ce8:	8a32                	mv	s4,a2
    80000cea:	cfc1                	beqz	a5,80000d82 <__sfvwrite_r+0xc8>
    80000cec:	6d9c                	ld	a5,24(a1)
    80000cee:	cbd1                	beqz	a5,80000d82 <__sfvwrite_r+0xc8>
    80000cf0:	01041783          	lh	a5,16(s0)
    80000cf4:	000a3983          	ld	s3,0(s4)
    80000cf8:	0027f713          	andi	a4,a5,2
    80000cfc:	e765                	bnez	a4,80000de4 <__sfvwrite_r+0x12a>
    80000cfe:	8b85                	andi	a5,a5,1
    80000d00:	4a81                	li	s5,0
    80000d02:	16078063          	beqz	a5,80000e62 <__sfvwrite_r+0x1a8>
    80000d06:	4501                	li	a0,0
    80000d08:	4b81                	li	s7,0
    80000d0a:	4b01                	li	s6,0
    80000d0c:	240b0063          	beqz	s6,80000f4c <__sfvwrite_r+0x292>
    80000d10:	e919                	bnez	a0,80000d26 <__sfvwrite_r+0x6c>
    80000d12:	865a                	mv	a2,s6
    80000d14:	45a9                	li	a1,10
    80000d16:	855e                	mv	a0,s7
    80000d18:	51e000ef          	jal	80001236 <memchr>
    80000d1c:	22050f63          	beqz	a0,80000f5a <__sfvwrite_r+0x2a0>
    80000d20:	0505                	addi	a0,a0,1
    80000d22:	41750abb          	subw	s5,a0,s7
    80000d26:	8c56                	mv	s8,s5
    80000d28:	015b7363          	bgeu	s6,s5,80000d2e <__sfvwrite_r+0x74>
    80000d2c:	8c5a                	mv	s8,s6
    80000d2e:	6008                	ld	a0,0(s0)
    80000d30:	6c1c                	ld	a5,24(s0)
    80000d32:	4444                	lw	s1,12(s0)
    80000d34:	5014                	lw	a3,32(s0)
    80000d36:	22a7f563          	bgeu	a5,a0,80000f60 <__sfvwrite_r+0x2a6>
    80000d3a:	9cb5                	addw	s1,s1,a3
    80000d3c:	2384d263          	bge	s1,s8,80000f60 <__sfvwrite_r+0x2a6>
    80000d40:	85de                	mv	a1,s7
    80000d42:	8626                	mv	a2,s1
    80000d44:	688000ef          	jal	800013cc <memmove>
    80000d48:	601c                	ld	a5,0(s0)
    80000d4a:	85a2                	mv	a1,s0
    80000d4c:	854a                	mv	a0,s2
    80000d4e:	97a6                	add	a5,a5,s1
    80000d50:	e01c                	sd	a5,0(s0)
    80000d52:	2b3000ef          	jal	80001804 <_fflush_r>
    80000d56:	0e051f63          	bnez	a0,80000e54 <__sfvwrite_r+0x19a>
    80000d5a:	409a8abb          	subw	s5,s5,s1
    80000d5e:	4505                	li	a0,1
    80000d60:	000a9763          	bnez	s5,80000d6e <__sfvwrite_r+0xb4>
    80000d64:	85a2                	mv	a1,s0
    80000d66:	854a                	mv	a0,s2
    80000d68:	29d000ef          	jal	80001804 <_fflush_r>
    80000d6c:	e565                	bnez	a0,80000e54 <__sfvwrite_r+0x19a>
    80000d6e:	010a3783          	ld	a5,16(s4)
    80000d72:	9ba6                	add	s7,s7,s1
    80000d74:	409b0b33          	sub	s6,s6,s1
    80000d78:	8f85                	sub	a5,a5,s1
    80000d7a:	00fa3823          	sd	a5,16(s4)
    80000d7e:	f7d9                	bnez	a5,80000d0c <__sfvwrite_r+0x52>
    80000d80:	a091                	j	80000dc4 <__sfvwrite_r+0x10a>
    80000d82:	85a2                	mv	a1,s0
    80000d84:	854a                	mv	a0,s2
    80000d86:	3e2000ef          	jal	80001168 <__swsetup_r>
    80000d8a:	d13d                	beqz	a0,80000cf0 <__sfvwrite_r+0x36>
    80000d8c:	557d                	li	a0,-1
    80000d8e:	a825                	j	80000dc6 <__sfvwrite_r+0x10c>
    80000d90:	0009ba83          	ld	s5,0(s3)
    80000d94:	0089b483          	ld	s1,8(s3)
    80000d98:	09c1                	addi	s3,s3,16
    80000d9a:	643c                	ld	a5,72(s0)
    80000d9c:	7c0c                	ld	a1,56(s0)
    80000d9e:	d8ed                	beqz	s1,80000d90 <__sfvwrite_r+0xd6>
    80000da0:	86a6                	mv	a3,s1
    80000da2:	009b7363          	bgeu	s6,s1,80000da8 <__sfvwrite_r+0xee>
    80000da6:	86da                	mv	a3,s6
    80000da8:	2681                	sext.w	a3,a3
    80000daa:	8656                	mv	a2,s5
    80000dac:	854a                	mv	a0,s2
    80000dae:	9782                	jalr	a5
    80000db0:	0aa05263          	blez	a0,80000e54 <__sfvwrite_r+0x19a>
    80000db4:	010a3783          	ld	a5,16(s4)
    80000db8:	9aaa                	add	s5,s5,a0
    80000dba:	8c89                	sub	s1,s1,a0
    80000dbc:	8f89                	sub	a5,a5,a0
    80000dbe:	00fa3823          	sd	a5,16(s4)
    80000dc2:	ffe1                	bnez	a5,80000d9a <__sfvwrite_r+0xe0>
    80000dc4:	4501                	li	a0,0
    80000dc6:	70a6                	ld	ra,104(sp)
    80000dc8:	7406                	ld	s0,96(sp)
    80000dca:	64e6                	ld	s1,88(sp)
    80000dcc:	6946                	ld	s2,80(sp)
    80000dce:	69a6                	ld	s3,72(sp)
    80000dd0:	6a06                	ld	s4,64(sp)
    80000dd2:	7ae2                	ld	s5,56(sp)
    80000dd4:	7b42                	ld	s6,48(sp)
    80000dd6:	7ba2                	ld	s7,40(sp)
    80000dd8:	7c02                	ld	s8,32(sp)
    80000dda:	6ce2                	ld	s9,24(sp)
    80000ddc:	6d42                	ld	s10,16(sp)
    80000dde:	6da2                	ld	s11,8(sp)
    80000de0:	6165                	addi	sp,sp,112
    80000de2:	8082                	ret
    80000de4:	80000b37          	lui	s6,0x80000
    80000de8:	4a81                	li	s5,0
    80000dea:	4481                	li	s1,0
    80000dec:	c00b4b13          	xori	s6,s6,-1024
    80000df0:	b76d                	j	80000d9a <__sfvwrite_r+0xe0>
    80000df2:	0009ba83          	ld	s5,0(s3)
    80000df6:	0089bc83          	ld	s9,8(s3)
    80000dfa:	09c1                	addi	s3,s3,16
    80000dfc:	4444                	lw	s1,12(s0)
    80000dfe:	01041783          	lh	a5,16(s0)
    80000e02:	6008                	ld	a0,0(s0)
    80000e04:	8d26                	mv	s10,s1
    80000e06:	fe0c86e3          	beqz	s9,80000df2 <__sfvwrite_r+0x138>
    80000e0a:	2007f713          	andi	a4,a5,512
    80000e0e:	c37d                	beqz	a4,80000ef4 <__sfvwrite_r+0x23a>
    80000e10:	089ce763          	bltu	s9,s1,80000e9e <__sfvwrite_r+0x1e4>
    80000e14:	4807f713          	andi	a4,a5,1152
    80000e18:	c359                	beqz	a4,80000e9e <__sfvwrite_r+0x1e4>
    80000e1a:	5004                	lw	s1,32(s0)
    80000e1c:	6c0c                	ld	a1,24(s0)
    80000e1e:	029b84bb          	mulw	s1,s7,s1
    80000e22:	8d0d                	sub	a0,a0,a1
    80000e24:	00050d9b          	sext.w	s11,a0
    80000e28:	001d8713          	addi	a4,s11,1
    80000e2c:	9766                	add	a4,a4,s9
    80000e2e:	0384c4bb          	divw	s1,s1,s8
    80000e32:	00e4f563          	bgeu	s1,a4,80000e3c <__sfvwrite_r+0x182>
    80000e36:	2505                	addiw	a0,a0,1
    80000e38:	019504bb          	addw	s1,a0,s9
    80000e3c:	4007f793          	andi	a5,a5,1024
    80000e40:	cbc9                	beqz	a5,80000ed2 <__sfvwrite_r+0x218>
    80000e42:	85a6                	mv	a1,s1
    80000e44:	854a                	mv	a0,s2
    80000e46:	6cc000ef          	jal	80001512 <_malloc_r>
    80000e4a:	8d2a                	mv	s10,a0
    80000e4c:	e11d                	bnez	a0,80000e72 <__sfvwrite_r+0x1b8>
    80000e4e:	47b1                	li	a5,12
    80000e50:	00f92023          	sw	a5,0(s2)
    80000e54:	01045783          	lhu	a5,16(s0)
    80000e58:	0407e793          	ori	a5,a5,64
    80000e5c:	00f41823          	sh	a5,16(s0)
    80000e60:	b735                	j	80000d8c <__sfvwrite_r+0xd2>
    80000e62:	80000b37          	lui	s6,0x80000
    80000e66:	4c81                	li	s9,0
    80000e68:	fffb4b13          	not	s6,s6
    80000e6c:	4b8d                	li	s7,3
    80000e6e:	4c09                	li	s8,2
    80000e70:	b771                	j	80000dfc <__sfvwrite_r+0x142>
    80000e72:	6c0c                	ld	a1,24(s0)
    80000e74:	866e                	mv	a2,s11
    80000e76:	58c000ef          	jal	80001402 <memcpy>
    80000e7a:	01045783          	lhu	a5,16(s0)
    80000e7e:	b7f7f793          	andi	a5,a5,-1153
    80000e82:	0807e793          	ori	a5,a5,128
    80000e86:	00f41823          	sh	a5,16(s0)
    80000e8a:	01a43c23          	sd	s10,24(s0)
    80000e8e:	d004                	sw	s1,32(s0)
    80000e90:	9d6e                	add	s10,s10,s11
    80000e92:	41b484bb          	subw	s1,s1,s11
    80000e96:	01a43023          	sd	s10,0(s0)
    80000e9a:	c444                	sw	s1,12(s0)
    80000e9c:	8d66                	mv	s10,s9
    80000e9e:	84e6                	mv	s1,s9
    80000ea0:	01acf363          	bgeu	s9,s10,80000ea6 <__sfvwrite_r+0x1ec>
    80000ea4:	8d66                	mv	s10,s9
    80000ea6:	6008                	ld	a0,0(s0)
    80000ea8:	866a                	mv	a2,s10
    80000eaa:	85d6                	mv	a1,s5
    80000eac:	520000ef          	jal	800013cc <memmove>
    80000eb0:	445c                	lw	a5,12(s0)
    80000eb2:	41a787bb          	subw	a5,a5,s10
    80000eb6:	c45c                	sw	a5,12(s0)
    80000eb8:	601c                	ld	a5,0(s0)
    80000eba:	97ea                	add	a5,a5,s10
    80000ebc:	e01c                	sd	a5,0(s0)
    80000ebe:	010a3783          	ld	a5,16(s4)
    80000ec2:	9aa6                	add	s5,s5,s1
    80000ec4:	409c8cb3          	sub	s9,s9,s1
    80000ec8:	8f85                	sub	a5,a5,s1
    80000eca:	00fa3823          	sd	a5,16(s4)
    80000ece:	f79d                	bnez	a5,80000dfc <__sfvwrite_r+0x142>
    80000ed0:	bdd5                	j	80000dc4 <__sfvwrite_r+0x10a>
    80000ed2:	8626                	mv	a2,s1
    80000ed4:	854a                	mv	a0,s2
    80000ed6:	770000ef          	jal	80001646 <_realloc_r>
    80000eda:	8d2a                	mv	s10,a0
    80000edc:	f55d                	bnez	a0,80000e8a <__sfvwrite_r+0x1d0>
    80000ede:	6c0c                	ld	a1,24(s0)
    80000ee0:	854a                	mv	a0,s2
    80000ee2:	536000ef          	jal	80001418 <_free_r>
    80000ee6:	01045783          	lhu	a5,16(s0)
    80000eea:	f7f7f793          	andi	a5,a5,-129
    80000eee:	00f41823          	sh	a5,16(s0)
    80000ef2:	bfb1                	j	80000e4e <__sfvwrite_r+0x194>
    80000ef4:	6c1c                	ld	a5,24(s0)
    80000ef6:	00a7e563          	bltu	a5,a0,80000f00 <__sfvwrite_r+0x246>
    80000efa:	5014                	lw	a3,32(s0)
    80000efc:	02dcf763          	bgeu	s9,a3,80000f2a <__sfvwrite_r+0x270>
    80000f00:	009cf363          	bgeu	s9,s1,80000f06 <__sfvwrite_r+0x24c>
    80000f04:	84e6                	mv	s1,s9
    80000f06:	8626                	mv	a2,s1
    80000f08:	85d6                	mv	a1,s5
    80000f0a:	4c2000ef          	jal	800013cc <memmove>
    80000f0e:	445c                	lw	a5,12(s0)
    80000f10:	4097873b          	subw	a4,a5,s1
    80000f14:	601c                	ld	a5,0(s0)
    80000f16:	c458                	sw	a4,12(s0)
    80000f18:	97a6                	add	a5,a5,s1
    80000f1a:	e01c                	sd	a5,0(s0)
    80000f1c:	f34d                	bnez	a4,80000ebe <__sfvwrite_r+0x204>
    80000f1e:	85a2                	mv	a1,s0
    80000f20:	854a                	mv	a0,s2
    80000f22:	0e3000ef          	jal	80001804 <_fflush_r>
    80000f26:	dd41                	beqz	a0,80000ebe <__sfvwrite_r+0x204>
    80000f28:	b735                	j	80000e54 <__sfvwrite_r+0x19a>
    80000f2a:	87e6                	mv	a5,s9
    80000f2c:	019b7363          	bgeu	s6,s9,80000f32 <__sfvwrite_r+0x278>
    80000f30:	87da                	mv	a5,s6
    80000f32:	02d7c7bb          	divw	a5,a5,a3
    80000f36:	6438                	ld	a4,72(s0)
    80000f38:	7c0c                	ld	a1,56(s0)
    80000f3a:	8656                	mv	a2,s5
    80000f3c:	854a                	mv	a0,s2
    80000f3e:	02d786bb          	mulw	a3,a5,a3
    80000f42:	9702                	jalr	a4
    80000f44:	84aa                	mv	s1,a0
    80000f46:	f6a04ce3          	bgtz	a0,80000ebe <__sfvwrite_r+0x204>
    80000f4a:	b729                	j	80000e54 <__sfvwrite_r+0x19a>
    80000f4c:	0009bb83          	ld	s7,0(s3)
    80000f50:	0089bb03          	ld	s6,8(s3)
    80000f54:	4501                	li	a0,0
    80000f56:	09c1                	addi	s3,s3,16
    80000f58:	bb55                	j	80000d0c <__sfvwrite_r+0x52>
    80000f5a:	001b0a9b          	addiw	s5,s6,1 # ffffffff80000001 <__heap_end+0xfffffffefffdd001>
    80000f5e:	b3e1                	j	80000d26 <__sfvwrite_r+0x6c>
    80000f60:	00dc4b63          	blt	s8,a3,80000f76 <__sfvwrite_r+0x2bc>
    80000f64:	643c                	ld	a5,72(s0)
    80000f66:	7c0c                	ld	a1,56(s0)
    80000f68:	865e                	mv	a2,s7
    80000f6a:	854a                	mv	a0,s2
    80000f6c:	9782                	jalr	a5
    80000f6e:	84aa                	mv	s1,a0
    80000f70:	dea045e3          	bgtz	a0,80000d5a <__sfvwrite_r+0xa0>
    80000f74:	b5c5                	j	80000e54 <__sfvwrite_r+0x19a>
    80000f76:	8662                	mv	a2,s8
    80000f78:	85de                	mv	a1,s7
    80000f7a:	452000ef          	jal	800013cc <memmove>
    80000f7e:	445c                	lw	a5,12(s0)
    80000f80:	84e2                	mv	s1,s8
    80000f82:	418787bb          	subw	a5,a5,s8
    80000f86:	c45c                	sw	a5,12(s0)
    80000f88:	601c                	ld	a5,0(s0)
    80000f8a:	97e2                	add	a5,a5,s8
    80000f8c:	e01c                	sd	a5,0(s0)
    80000f8e:	b3f1                	j	80000d5a <__sfvwrite_r+0xa0>

0000000080000f90 <_fwalk_sglue>:
    80000f90:	715d                	addi	sp,sp,-80
    80000f92:	e0a2                	sd	s0,64(sp)
    80000f94:	fc26                	sd	s1,56(sp)
    80000f96:	f44e                	sd	s3,40(sp)
    80000f98:	f052                	sd	s4,32(sp)
    80000f9a:	e85a                	sd	s6,16(sp)
    80000f9c:	e45e                	sd	s7,8(sp)
    80000f9e:	e486                	sd	ra,72(sp)
    80000fa0:	f84a                	sd	s2,48(sp)
    80000fa2:	ec56                	sd	s5,24(sp)
    80000fa4:	89aa                	mv	s3,a0
    80000fa6:	8a2e                	mv	s4,a1
    80000fa8:	8432                	mv	s0,a2
    80000faa:	4481                	li	s1,0
    80000fac:	4b05                	li	s6,1
    80000fae:	5bfd                	li	s7,-1
    80000fb0:	01043903          	ld	s2,16(s0)
    80000fb4:	00842a83          	lw	s5,8(s0)
    80000fb8:	3afd                	addiw	s5,s5,-1
    80000fba:	020ad063          	bgez	s5,80000fda <_fwalk_sglue+0x4a>
    80000fbe:	6000                	ld	s0,0(s0)
    80000fc0:	f865                	bnez	s0,80000fb0 <_fwalk_sglue+0x20>
    80000fc2:	60a6                	ld	ra,72(sp)
    80000fc4:	6406                	ld	s0,64(sp)
    80000fc6:	7942                	ld	s2,48(sp)
    80000fc8:	79a2                	ld	s3,40(sp)
    80000fca:	7a02                	ld	s4,32(sp)
    80000fcc:	6ae2                	ld	s5,24(sp)
    80000fce:	6b42                	ld	s6,16(sp)
    80000fd0:	6ba2                	ld	s7,8(sp)
    80000fd2:	8526                	mv	a0,s1
    80000fd4:	74e2                	ld	s1,56(sp)
    80000fd6:	6161                	addi	sp,sp,80
    80000fd8:	8082                	ret
    80000fda:	01095783          	lhu	a5,16(s2)
    80000fde:	00fb7b63          	bgeu	s6,a5,80000ff4 <_fwalk_sglue+0x64>
    80000fe2:	01291783          	lh	a5,18(s2)
    80000fe6:	01778763          	beq	a5,s7,80000ff4 <_fwalk_sglue+0x64>
    80000fea:	85ca                	mv	a1,s2
    80000fec:	854e                	mv	a0,s3
    80000fee:	9a02                	jalr	s4
    80000ff0:	8cc9                	or	s1,s1,a0
    80000ff2:	2481                	sext.w	s1,s1
    80000ff4:	0b090913          	addi	s2,s2,176
    80000ff8:	b7c1                	j	80000fb8 <_fwalk_sglue+0x28>

0000000080000ffa <__sread>:
    80000ffa:	1141                	addi	sp,sp,-16
    80000ffc:	e022                	sd	s0,0(sp)
    80000ffe:	842e                	mv	s0,a1
    80001000:	01259583          	lh	a1,18(a1)
    80001004:	e406                	sd	ra,8(sp)
    80001006:	36e000ef          	jal	80001374 <_read_r>
    8000100a:	00054963          	bltz	a0,8000101c <__sread+0x22>
    8000100e:	6c5c                	ld	a5,152(s0)
    80001010:	97aa                	add	a5,a5,a0
    80001012:	ec5c                	sd	a5,152(s0)
    80001014:	60a2                	ld	ra,8(sp)
    80001016:	6402                	ld	s0,0(sp)
    80001018:	0141                	addi	sp,sp,16
    8000101a:	8082                	ret
    8000101c:	01045783          	lhu	a5,16(s0)
    80001020:	777d                	lui	a4,0xfffff
    80001022:	177d                	addi	a4,a4,-1 # ffffffffffffefff <__heap_end+0xffffffff7ffdbfff>
    80001024:	8ff9                	and	a5,a5,a4
    80001026:	00f41823          	sh	a5,16(s0)
    8000102a:	b7ed                	j	80001014 <__sread+0x1a>

000000008000102c <__seofread>:
    8000102c:	4501                	li	a0,0
    8000102e:	8082                	ret

0000000080001030 <__swrite>:
    80001030:	0105d783          	lhu	a5,16(a1)
    80001034:	7179                	addi	sp,sp,-48
    80001036:	f022                	sd	s0,32(sp)
    80001038:	ec26                	sd	s1,24(sp)
    8000103a:	e84a                	sd	s2,16(sp)
    8000103c:	e44e                	sd	s3,8(sp)
    8000103e:	f406                	sd	ra,40(sp)
    80001040:	1007f793          	andi	a5,a5,256
    80001044:	84aa                	mv	s1,a0
    80001046:	842e                	mv	s0,a1
    80001048:	8932                	mv	s2,a2
    8000104a:	89b6                	mv	s3,a3
    8000104c:	c799                	beqz	a5,8000105a <__swrite+0x2a>
    8000104e:	01259583          	lh	a1,18(a1)
    80001052:	4689                	li	a3,2
    80001054:	4601                	li	a2,0
    80001056:	2f2000ef          	jal	80001348 <_lseek_r>
    8000105a:	01045783          	lhu	a5,16(s0)
    8000105e:	777d                	lui	a4,0xfffff
    80001060:	177d                	addi	a4,a4,-1 # ffffffffffffefff <__heap_end+0xffffffff7ffdbfff>
    80001062:	8ff9                	and	a5,a5,a4
    80001064:	01241583          	lh	a1,18(s0)
    80001068:	00f41823          	sh	a5,16(s0)
    8000106c:	7402                	ld	s0,32(sp)
    8000106e:	70a2                	ld	ra,40(sp)
    80001070:	86ce                	mv	a3,s3
    80001072:	864a                	mv	a2,s2
    80001074:	69a2                	ld	s3,8(sp)
    80001076:	6942                	ld	s2,16(sp)
    80001078:	8526                	mv	a0,s1
    8000107a:	64e2                	ld	s1,24(sp)
    8000107c:	6145                	addi	sp,sp,48
    8000107e:	a60d                	j	800013a0 <_write_r>

0000000080001080 <__sseek>:
    80001080:	1141                	addi	sp,sp,-16
    80001082:	e022                	sd	s0,0(sp)
    80001084:	842e                	mv	s0,a1
    80001086:	01259583          	lh	a1,18(a1)
    8000108a:	e406                	sd	ra,8(sp)
    8000108c:	2bc000ef          	jal	80001348 <_lseek_r>
    80001090:	577d                	li	a4,-1
    80001092:	01045783          	lhu	a5,16(s0)
    80001096:	00e51b63          	bne	a0,a4,800010ac <__sseek+0x2c>
    8000109a:	777d                	lui	a4,0xfffff
    8000109c:	177d                	addi	a4,a4,-1 # ffffffffffffefff <__heap_end+0xffffffff7ffdbfff>
    8000109e:	8ff9                	and	a5,a5,a4
    800010a0:	00f41823          	sh	a5,16(s0)
    800010a4:	60a2                	ld	ra,8(sp)
    800010a6:	6402                	ld	s0,0(sp)
    800010a8:	0141                	addi	sp,sp,16
    800010aa:	8082                	ret
    800010ac:	6705                	lui	a4,0x1
    800010ae:	8fd9                	or	a5,a5,a4
    800010b0:	00f41823          	sh	a5,16(s0)
    800010b4:	ec48                	sd	a0,152(s0)
    800010b6:	b7fd                	j	800010a4 <__sseek+0x24>

00000000800010b8 <__sclose>:
    800010b8:	01259583          	lh	a1,18(a1)
    800010bc:	aa51                	j	80001250 <_close_r>

00000000800010be <__swbuf_r>:
    800010be:	7179                	addi	sp,sp,-48
    800010c0:	f022                	sd	s0,32(sp)
    800010c2:	ec26                	sd	s1,24(sp)
    800010c4:	e84a                	sd	s2,16(sp)
    800010c6:	f406                	sd	ra,40(sp)
    800010c8:	e44e                	sd	s3,8(sp)
    800010ca:	892a                	mv	s2,a0
    800010cc:	84ae                	mv	s1,a1
    800010ce:	8432                	mv	s0,a2
    800010d0:	c509                	beqz	a0,800010da <__swbuf_r+0x1c>
    800010d2:	613c                	ld	a5,64(a0)
    800010d4:	e399                	bnez	a5,800010da <__swbuf_r+0x1c>
    800010d6:	ba1ff0ef          	jal	80000c76 <__sinit>
    800010da:	541c                	lw	a5,40(s0)
    800010dc:	c45c                	sw	a5,12(s0)
    800010de:	01045783          	lhu	a5,16(s0)
    800010e2:	8ba1                	andi	a5,a5,8
    800010e4:	c399                	beqz	a5,800010ea <__swbuf_r+0x2c>
    800010e6:	6c1c                	ld	a5,24(s0)
    800010e8:	ef99                	bnez	a5,80001106 <__swbuf_r+0x48>
    800010ea:	85a2                	mv	a1,s0
    800010ec:	854a                	mv	a0,s2
    800010ee:	07a000ef          	jal	80001168 <__swsetup_r>
    800010f2:	c911                	beqz	a0,80001106 <__swbuf_r+0x48>
    800010f4:	54fd                	li	s1,-1
    800010f6:	70a2                	ld	ra,40(sp)
    800010f8:	7402                	ld	s0,32(sp)
    800010fa:	6942                	ld	s2,16(sp)
    800010fc:	69a2                	ld	s3,8(sp)
    800010fe:	8526                	mv	a0,s1
    80001100:	64e2                	ld	s1,24(sp)
    80001102:	6145                	addi	sp,sp,48
    80001104:	8082                	ret
    80001106:	601c                	ld	a5,0(s0)
    80001108:	6c18                	ld	a4,24(s0)
    8000110a:	0ff4f993          	zext.b	s3,s1
    8000110e:	84ce                	mv	s1,s3
    80001110:	40e7853b          	subw	a0,a5,a4
    80001114:	501c                	lw	a5,32(s0)
    80001116:	00f54763          	blt	a0,a5,80001124 <__swbuf_r+0x66>
    8000111a:	85a2                	mv	a1,s0
    8000111c:	854a                	mv	a0,s2
    8000111e:	6e6000ef          	jal	80001804 <_fflush_r>
    80001122:	f969                	bnez	a0,800010f4 <__swbuf_r+0x36>
    80001124:	445c                	lw	a5,12(s0)
    80001126:	37fd                	addiw	a5,a5,-1
    80001128:	c45c                	sw	a5,12(s0)
    8000112a:	601c                	ld	a5,0(s0)
    8000112c:	00178713          	addi	a4,a5,1
    80001130:	e018                	sd	a4,0(s0)
    80001132:	01378023          	sb	s3,0(a5)
    80001136:	5018                	lw	a4,32(s0)
    80001138:	0015079b          	addiw	a5,a0,1
    8000113c:	00f70963          	beq	a4,a5,8000114e <__swbuf_r+0x90>
    80001140:	01045783          	lhu	a5,16(s0)
    80001144:	8b85                	andi	a5,a5,1
    80001146:	dbc5                	beqz	a5,800010f6 <__swbuf_r+0x38>
    80001148:	47a9                	li	a5,10
    8000114a:	faf496e3          	bne	s1,a5,800010f6 <__swbuf_r+0x38>
    8000114e:	85a2                	mv	a1,s0
    80001150:	854a                	mv	a0,s2
    80001152:	6b2000ef          	jal	80001804 <_fflush_r>
    80001156:	d145                	beqz	a0,800010f6 <__swbuf_r+0x38>
    80001158:	bf71                	j	800010f4 <__swbuf_r+0x36>

000000008000115a <__swbuf>:
    8000115a:	862e                	mv	a2,a1
    8000115c:	85aa                	mv	a1,a0
    8000115e:	00001517          	auipc	a0,0x1
    80001162:	e1a53503          	ld	a0,-486(a0) # 80001f78 <_impure_ptr>
    80001166:	bfa1                	j	800010be <__swbuf_r>

0000000080001168 <__swsetup_r>:
    80001168:	1101                	addi	sp,sp,-32
    8000116a:	e822                	sd	s0,16(sp)
    8000116c:	e426                	sd	s1,8(sp)
    8000116e:	ec06                	sd	ra,24(sp)
    80001170:	84aa                	mv	s1,a0
    80001172:	00001517          	auipc	a0,0x1
    80001176:	e0653503          	ld	a0,-506(a0) # 80001f78 <_impure_ptr>
    8000117a:	842e                	mv	s0,a1
    8000117c:	c509                	beqz	a0,80001186 <__swsetup_r+0x1e>
    8000117e:	613c                	ld	a5,64(a0)
    80001180:	e399                	bnez	a5,80001186 <__swsetup_r+0x1e>
    80001182:	af5ff0ef          	jal	80000c76 <__sinit>
    80001186:	01041783          	lh	a5,16(s0)
    8000118a:	0087f713          	andi	a4,a5,8
    8000118e:	eb29                	bnez	a4,800011e0 <__swsetup_r+0x78>
    80001190:	0107f713          	andi	a4,a5,16
    80001194:	eb09                	bnez	a4,800011a6 <__swsetup_r+0x3e>
    80001196:	4725                	li	a4,9
    80001198:	c098                	sw	a4,0(s1)
    8000119a:	0407e793          	ori	a5,a5,64
    8000119e:	00f41823          	sh	a5,16(s0)
    800011a2:	557d                	li	a0,-1
    800011a4:	a8ad                	j	8000121e <__swsetup_r+0xb6>
    800011a6:	8b91                	andi	a5,a5,4
    800011a8:	c795                	beqz	a5,800011d4 <__swsetup_r+0x6c>
    800011aa:	702c                	ld	a1,96(s0)
    800011ac:	c991                	beqz	a1,800011c0 <__swsetup_r+0x58>
    800011ae:	07c40793          	addi	a5,s0,124
    800011b2:	00f58563          	beq	a1,a5,800011bc <__swsetup_r+0x54>
    800011b6:	8526                	mv	a0,s1
    800011b8:	260000ef          	jal	80001418 <_free_r>
    800011bc:	06043023          	sd	zero,96(s0)
    800011c0:	01045783          	lhu	a5,16(s0)
    800011c4:	00042423          	sw	zero,8(s0)
    800011c8:	fdb7f793          	andi	a5,a5,-37
    800011cc:	00f41823          	sh	a5,16(s0)
    800011d0:	6c1c                	ld	a5,24(s0)
    800011d2:	e01c                	sd	a5,0(s0)
    800011d4:	01045783          	lhu	a5,16(s0)
    800011d8:	0087e793          	ori	a5,a5,8
    800011dc:	00f41823          	sh	a5,16(s0)
    800011e0:	6c1c                	ld	a5,24(s0)
    800011e2:	ef89                	bnez	a5,800011fc <__swsetup_r+0x94>
    800011e4:	01045783          	lhu	a5,16(s0)
    800011e8:	20000713          	li	a4,512
    800011ec:	2807f793          	andi	a5,a5,640
    800011f0:	00e78663          	beq	a5,a4,800011fc <__swsetup_r+0x94>
    800011f4:	85a2                	mv	a1,s0
    800011f6:	8526                	mv	a0,s1
    800011f8:	6ca000ef          	jal	800018c2 <__smakebuf_r>
    800011fc:	01041783          	lh	a5,16(s0)
    80001200:	0017f713          	andi	a4,a5,1
    80001204:	c315                	beqz	a4,80001228 <__swsetup_r+0xc0>
    80001206:	5018                	lw	a4,32(s0)
    80001208:	00042623          	sw	zero,12(s0)
    8000120c:	40e0073b          	negw	a4,a4
    80001210:	d418                	sw	a4,40(s0)
    80001212:	6c18                	ld	a4,24(s0)
    80001214:	4501                	li	a0,0
    80001216:	e701                	bnez	a4,8000121e <__swsetup_r+0xb6>
    80001218:	0807f713          	andi	a4,a5,128
    8000121c:	ff3d                	bnez	a4,8000119a <__swsetup_r+0x32>
    8000121e:	60e2                	ld	ra,24(sp)
    80001220:	6442                	ld	s0,16(sp)
    80001222:	64a2                	ld	s1,8(sp)
    80001224:	6105                	addi	sp,sp,32
    80001226:	8082                	ret
    80001228:	0027f713          	andi	a4,a5,2
    8000122c:	4681                	li	a3,0
    8000122e:	e311                	bnez	a4,80001232 <__swsetup_r+0xca>
    80001230:	5014                	lw	a3,32(s0)
    80001232:	c454                	sw	a3,12(s0)
    80001234:	bff9                	j	80001212 <__swsetup_r+0xaa>

0000000080001236 <memchr>:
    80001236:	0ff5f593          	zext.b	a1,a1
    8000123a:	962a                	add	a2,a2,a0
    8000123c:	00c51463          	bne	a0,a2,80001244 <memchr+0xe>
    80001240:	4501                	li	a0,0
    80001242:	8082                	ret
    80001244:	00054783          	lbu	a5,0(a0)
    80001248:	feb78de3          	beq	a5,a1,80001242 <memchr+0xc>
    8000124c:	0505                	addi	a0,a0,1
    8000124e:	b7fd                	j	8000123c <memchr+0x6>

0000000080001250 <_close_r>:
    80001250:	1141                	addi	sp,sp,-16
    80001252:	e022                	sd	s0,0(sp)
    80001254:	842a                	mv	s0,a0
    80001256:	852e                	mv	a0,a1
    80001258:	8201a423          	sw	zero,-2008(gp) # 80001fa0 <errno>
    8000125c:	e406                	sd	ra,8(sp)
    8000125e:	794000ef          	jal	800019f2 <_close>
    80001262:	57fd                	li	a5,-1
    80001264:	00f51663          	bne	a0,a5,80001270 <_close_r+0x20>
    80001268:	8281a783          	lw	a5,-2008(gp) # 80001fa0 <errno>
    8000126c:	c391                	beqz	a5,80001270 <_close_r+0x20>
    8000126e:	c01c                	sw	a5,0(s0)
    80001270:	60a2                	ld	ra,8(sp)
    80001272:	6402                	ld	s0,0(sp)
    80001274:	0141                	addi	sp,sp,16
    80001276:	8082                	ret

0000000080001278 <_reclaim_reent>:
    80001278:	00001797          	auipc	a5,0x1
    8000127c:	d007b783          	ld	a5,-768(a5) # 80001f78 <_impure_ptr>
    80001280:	0ca78363          	beq	a5,a0,80001346 <_reclaim_reent+0xce>
    80001284:	7d1c                	ld	a5,56(a0)
    80001286:	7179                	addi	sp,sp,-48
    80001288:	f022                	sd	s0,32(sp)
    8000128a:	f406                	sd	ra,40(sp)
    8000128c:	ec26                	sd	s1,24(sp)
    8000128e:	e84a                	sd	s2,16(sp)
    80001290:	e44e                	sd	s3,8(sp)
    80001292:	842a                	mv	s0,a0
    80001294:	cb8d                	beqz	a5,800012c6 <_reclaim_reent+0x4e>
    80001296:	6f9c                	ld	a5,24(a5)
    80001298:	c38d                	beqz	a5,800012ba <_reclaim_reent+0x42>
    8000129a:	4481                	li	s1,0
    8000129c:	20000913          	li	s2,512
    800012a0:	7c1c                	ld	a5,56(s0)
    800012a2:	6f9c                	ld	a5,24(a5)
    800012a4:	97a6                	add	a5,a5,s1
    800012a6:	638c                	ld	a1,0(a5)
    800012a8:	e1c9                	bnez	a1,8000132a <_reclaim_reent+0xb2>
    800012aa:	04a1                	addi	s1,s1,8
    800012ac:	ff249ae3          	bne	s1,s2,800012a0 <_reclaim_reent+0x28>
    800012b0:	7c1c                	ld	a5,56(s0)
    800012b2:	8522                	mv	a0,s0
    800012b4:	6f8c                	ld	a1,24(a5)
    800012b6:	162000ef          	jal	80001418 <_free_r>
    800012ba:	7c1c                	ld	a5,56(s0)
    800012bc:	638c                	ld	a1,0(a5)
    800012be:	c581                	beqz	a1,800012c6 <_reclaim_reent+0x4e>
    800012c0:	8522                	mv	a0,s0
    800012c2:	156000ef          	jal	80001418 <_free_r>
    800012c6:	740c                	ld	a1,40(s0)
    800012c8:	c581                	beqz	a1,800012d0 <_reclaim_reent+0x58>
    800012ca:	8522                	mv	a0,s0
    800012cc:	14c000ef          	jal	80001418 <_free_r>
    800012d0:	7c0c                	ld	a1,56(s0)
    800012d2:	c581                	beqz	a1,800012da <_reclaim_reent+0x62>
    800012d4:	8522                	mv	a0,s0
    800012d6:	142000ef          	jal	80001418 <_free_r>
    800012da:	6c2c                	ld	a1,88(s0)
    800012dc:	c581                	beqz	a1,800012e4 <_reclaim_reent+0x6c>
    800012de:	8522                	mv	a0,s0
    800012e0:	138000ef          	jal	80001418 <_free_r>
    800012e4:	702c                	ld	a1,96(s0)
    800012e6:	c581                	beqz	a1,800012ee <_reclaim_reent+0x76>
    800012e8:	8522                	mv	a0,s0
    800012ea:	12e000ef          	jal	80001418 <_free_r>
    800012ee:	742c                	ld	a1,104(s0)
    800012f0:	c581                	beqz	a1,800012f8 <_reclaim_reent+0x80>
    800012f2:	8522                	mv	a0,s0
    800012f4:	124000ef          	jal	80001418 <_free_r>
    800012f8:	644c                	ld	a1,136(s0)
    800012fa:	c581                	beqz	a1,80001302 <_reclaim_reent+0x8a>
    800012fc:	8522                	mv	a0,s0
    800012fe:	11a000ef          	jal	80001418 <_free_r>
    80001302:	604c                	ld	a1,128(s0)
    80001304:	c581                	beqz	a1,8000130c <_reclaim_reent+0x94>
    80001306:	8522                	mv	a0,s0
    80001308:	110000ef          	jal	80001418 <_free_r>
    8000130c:	682c                	ld	a1,80(s0)
    8000130e:	c581                	beqz	a1,80001316 <_reclaim_reent+0x9e>
    80001310:	8522                	mv	a0,s0
    80001312:	106000ef          	jal	80001418 <_free_r>
    80001316:	603c                	ld	a5,64(s0)
    80001318:	c385                	beqz	a5,80001338 <_reclaim_reent+0xc0>
    8000131a:	8522                	mv	a0,s0
    8000131c:	7402                	ld	s0,32(sp)
    8000131e:	70a2                	ld	ra,40(sp)
    80001320:	64e2                	ld	s1,24(sp)
    80001322:	6942                	ld	s2,16(sp)
    80001324:	69a2                	ld	s3,8(sp)
    80001326:	6145                	addi	sp,sp,48
    80001328:	8782                	jr	a5
    8000132a:	0005b983          	ld	s3,0(a1)
    8000132e:	8522                	mv	a0,s0
    80001330:	0e8000ef          	jal	80001418 <_free_r>
    80001334:	85ce                	mv	a1,s3
    80001336:	bf8d                	j	800012a8 <_reclaim_reent+0x30>
    80001338:	70a2                	ld	ra,40(sp)
    8000133a:	7402                	ld	s0,32(sp)
    8000133c:	64e2                	ld	s1,24(sp)
    8000133e:	6942                	ld	s2,16(sp)
    80001340:	69a2                	ld	s3,8(sp)
    80001342:	6145                	addi	sp,sp,48
    80001344:	8082                	ret
    80001346:	8082                	ret

0000000080001348 <_lseek_r>:
    80001348:	1141                	addi	sp,sp,-16
    8000134a:	e022                	sd	s0,0(sp)
    8000134c:	842a                	mv	s0,a0
    8000134e:	852e                	mv	a0,a1
    80001350:	85b2                	mv	a1,a2
    80001352:	8636                	mv	a2,a3
    80001354:	8201a423          	sw	zero,-2008(gp) # 80001fa0 <errno>
    80001358:	e406                	sd	ra,8(sp)
    8000135a:	6c8000ef          	jal	80001a22 <_lseek>
    8000135e:	57fd                	li	a5,-1
    80001360:	00f51663          	bne	a0,a5,8000136c <_lseek_r+0x24>
    80001364:	8281a783          	lw	a5,-2008(gp) # 80001fa0 <errno>
    80001368:	c391                	beqz	a5,8000136c <_lseek_r+0x24>
    8000136a:	c01c                	sw	a5,0(s0)
    8000136c:	60a2                	ld	ra,8(sp)
    8000136e:	6402                	ld	s0,0(sp)
    80001370:	0141                	addi	sp,sp,16
    80001372:	8082                	ret

0000000080001374 <_read_r>:
    80001374:	1141                	addi	sp,sp,-16
    80001376:	e022                	sd	s0,0(sp)
    80001378:	842a                	mv	s0,a0
    8000137a:	852e                	mv	a0,a1
    8000137c:	85b2                	mv	a1,a2
    8000137e:	8636                	mv	a2,a3
    80001380:	8201a423          	sw	zero,-2008(gp) # 80001fa0 <errno>
    80001384:	e406                	sd	ra,8(sp)
    80001386:	6b0000ef          	jal	80001a36 <_read>
    8000138a:	57fd                	li	a5,-1
    8000138c:	00f51663          	bne	a0,a5,80001398 <_read_r+0x24>
    80001390:	8281a783          	lw	a5,-2008(gp) # 80001fa0 <errno>
    80001394:	c391                	beqz	a5,80001398 <_read_r+0x24>
    80001396:	c01c                	sw	a5,0(s0)
    80001398:	60a2                	ld	ra,8(sp)
    8000139a:	6402                	ld	s0,0(sp)
    8000139c:	0141                	addi	sp,sp,16
    8000139e:	8082                	ret

00000000800013a0 <_write_r>:
    800013a0:	1141                	addi	sp,sp,-16
    800013a2:	e022                	sd	s0,0(sp)
    800013a4:	842a                	mv	s0,a0
    800013a6:	852e                	mv	a0,a1
    800013a8:	85b2                	mv	a1,a2
    800013aa:	8636                	mv	a2,a3
    800013ac:	8201a423          	sw	zero,-2008(gp) # 80001fa0 <errno>
    800013b0:	e406                	sd	ra,8(sp)
    800013b2:	6d6000ef          	jal	80001a88 <_write>
    800013b6:	57fd                	li	a5,-1
    800013b8:	00f51663          	bne	a0,a5,800013c4 <_write_r+0x24>
    800013bc:	8281a783          	lw	a5,-2008(gp) # 80001fa0 <errno>
    800013c0:	c391                	beqz	a5,800013c4 <_write_r+0x24>
    800013c2:	c01c                	sw	a5,0(s0)
    800013c4:	60a2                	ld	ra,8(sp)
    800013c6:	6402                	ld	s0,0(sp)
    800013c8:	0141                	addi	sp,sp,16
    800013ca:	8082                	ret

00000000800013cc <memmove>:
    800013cc:	c215                	beqz	a2,800013f0 <memmove+0x24>
    800013ce:	832a                	mv	t1,a0
    800013d0:	4685                	li	a3,1
    800013d2:	00b56763          	bltu	a0,a1,800013e0 <memmove+0x14>
    800013d6:	56fd                	li	a3,-1
    800013d8:	fff60713          	addi	a4,a2,-1
    800013dc:	933a                	add	t1,t1,a4
    800013de:	95ba                	add	a1,a1,a4
    800013e0:	00058383          	lb	t2,0(a1)
    800013e4:	00730023          	sb	t2,0(t1)
    800013e8:	167d                	addi	a2,a2,-1
    800013ea:	9336                	add	t1,t1,a3
    800013ec:	95b6                	add	a1,a1,a3
    800013ee:	fa6d                	bnez	a2,800013e0 <memmove+0x14>
    800013f0:	8082                	ret

00000000800013f2 <memset>:
    800013f2:	832a                	mv	t1,a0
    800013f4:	c611                	beqz	a2,80001400 <memset+0xe>
    800013f6:	00b30023          	sb	a1,0(t1)
    800013fa:	167d                	addi	a2,a2,-1
    800013fc:	0305                	addi	t1,t1,1
    800013fe:	fe65                	bnez	a2,800013f6 <memset+0x4>
    80001400:	8082                	ret

0000000080001402 <memcpy>:
    80001402:	832a                	mv	t1,a0
    80001404:	ca09                	beqz	a2,80001416 <memcpy+0x14>
    80001406:	00058383          	lb	t2,0(a1)
    8000140a:	00730023          	sb	t2,0(t1)
    8000140e:	167d                	addi	a2,a2,-1
    80001410:	0305                	addi	t1,t1,1
    80001412:	0585                	addi	a1,a1,1
    80001414:	fa6d                	bnez	a2,80001406 <memcpy+0x4>
    80001416:	8082                	ret

0000000080001418 <_free_r>:
    80001418:	cdd9                	beqz	a1,800014b6 <_free_r+0x9e>
    8000141a:	ff85b783          	ld	a5,-8(a1)
    8000141e:	1101                	addi	sp,sp,-32
    80001420:	e822                	sd	s0,16(sp)
    80001422:	ec06                	sd	ra,24(sp)
    80001424:	ff858413          	addi	s0,a1,-8
    80001428:	0007d363          	bgez	a5,8000142e <_free_r+0x16>
    8000142c:	943e                	add	s0,s0,a5
    8000142e:	e42a                	sd	a0,8(sp)
    80001430:	212000ef          	jal	80001642 <__malloc_lock>
    80001434:	83818713          	addi	a4,gp,-1992 # 80001fb0 <__malloc_free_list>
    80001438:	631c                	ld	a5,0(a4)
    8000143a:	6522                	ld	a0,8(sp)
    8000143c:	eb81                	bnez	a5,8000144c <_free_r+0x34>
    8000143e:	00043423          	sd	zero,8(s0)
    80001442:	e300                	sd	s0,0(a4)
    80001444:	6442                	ld	s0,16(sp)
    80001446:	60e2                	ld	ra,24(sp)
    80001448:	6105                	addi	sp,sp,32
    8000144a:	aaed                	j	80001644 <__malloc_unlock>
    8000144c:	00f47d63          	bgeu	s0,a5,80001466 <_free_r+0x4e>
    80001450:	6010                	ld	a2,0(s0)
    80001452:	00c406b3          	add	a3,s0,a2
    80001456:	00d79663          	bne	a5,a3,80001462 <_free_r+0x4a>
    8000145a:	6394                	ld	a3,0(a5)
    8000145c:	679c                	ld	a5,8(a5)
    8000145e:	96b2                	add	a3,a3,a2
    80001460:	e014                	sd	a3,0(s0)
    80001462:	e41c                	sd	a5,8(s0)
    80001464:	bff9                	j	80001442 <_free_r+0x2a>
    80001466:	873e                	mv	a4,a5
    80001468:	679c                	ld	a5,8(a5)
    8000146a:	c399                	beqz	a5,80001470 <_free_r+0x58>
    8000146c:	fef47de3          	bgeu	s0,a5,80001466 <_free_r+0x4e>
    80001470:	6314                	ld	a3,0(a4)
    80001472:	00d70633          	add	a2,a4,a3
    80001476:	00861f63          	bne	a2,s0,80001494 <_free_r+0x7c>
    8000147a:	6010                	ld	a2,0(s0)
    8000147c:	96b2                	add	a3,a3,a2
    8000147e:	e314                	sd	a3,0(a4)
    80001480:	00d70633          	add	a2,a4,a3
    80001484:	fcc790e3          	bne	a5,a2,80001444 <_free_r+0x2c>
    80001488:	6390                	ld	a2,0(a5)
    8000148a:	679c                	ld	a5,8(a5)
    8000148c:	96b2                	add	a3,a3,a2
    8000148e:	e314                	sd	a3,0(a4)
    80001490:	e71c                	sd	a5,8(a4)
    80001492:	bf4d                	j	80001444 <_free_r+0x2c>
    80001494:	00c47563          	bgeu	s0,a2,8000149e <_free_r+0x86>
    80001498:	47b1                	li	a5,12
    8000149a:	c11c                	sw	a5,0(a0)
    8000149c:	b765                	j	80001444 <_free_r+0x2c>
    8000149e:	6010                	ld	a2,0(s0)
    800014a0:	00c406b3          	add	a3,s0,a2
    800014a4:	00d79663          	bne	a5,a3,800014b0 <_free_r+0x98>
    800014a8:	6394                	ld	a3,0(a5)
    800014aa:	679c                	ld	a5,8(a5)
    800014ac:	96b2                	add	a3,a3,a2
    800014ae:	e014                	sd	a3,0(s0)
    800014b0:	e41c                	sd	a5,8(s0)
    800014b2:	e700                	sd	s0,8(a4)
    800014b4:	bf41                	j	80001444 <_free_r+0x2c>
    800014b6:	8082                	ret

00000000800014b8 <sbrk_aligned>:
    800014b8:	1101                	addi	sp,sp,-32
    800014ba:	e04a                	sd	s2,0(sp)
    800014bc:	83018913          	addi	s2,gp,-2000 # 80001fa8 <__malloc_sbrk_start>
    800014c0:	00093783          	ld	a5,0(s2)
    800014c4:	e822                	sd	s0,16(sp)
    800014c6:	e426                	sd	s1,8(sp)
    800014c8:	ec06                	sd	ra,24(sp)
    800014ca:	84aa                	mv	s1,a0
    800014cc:	842e                	mv	s0,a1
    800014ce:	e791                	bnez	a5,800014da <sbrk_aligned+0x22>
    800014d0:	4581                	li	a1,0
    800014d2:	4e0000ef          	jal	800019b2 <_sbrk_r>
    800014d6:	00a93023          	sd	a0,0(s2)
    800014da:	85a2                	mv	a1,s0
    800014dc:	8526                	mv	a0,s1
    800014de:	4d4000ef          	jal	800019b2 <_sbrk_r>
    800014e2:	597d                	li	s2,-1
    800014e4:	01251a63          	bne	a0,s2,800014f8 <sbrk_aligned+0x40>
    800014e8:	547d                	li	s0,-1
    800014ea:	60e2                	ld	ra,24(sp)
    800014ec:	8522                	mv	a0,s0
    800014ee:	6442                	ld	s0,16(sp)
    800014f0:	64a2                	ld	s1,8(sp)
    800014f2:	6902                	ld	s2,0(sp)
    800014f4:	6105                	addi	sp,sp,32
    800014f6:	8082                	ret
    800014f8:	00750413          	addi	s0,a0,7
    800014fc:	9861                	andi	s0,s0,-8
    800014fe:	fe8506e3          	beq	a0,s0,800014ea <sbrk_aligned+0x32>
    80001502:	40a405b3          	sub	a1,s0,a0
    80001506:	8526                	mv	a0,s1
    80001508:	4aa000ef          	jal	800019b2 <_sbrk_r>
    8000150c:	fd251fe3          	bne	a0,s2,800014ea <sbrk_aligned+0x32>
    80001510:	bfe1                	j	800014e8 <sbrk_aligned+0x30>

0000000080001512 <_malloc_r>:
    80001512:	00758793          	addi	a5,a1,7
    80001516:	7179                	addi	sp,sp,-48
    80001518:	9be1                	andi	a5,a5,-8
    8000151a:	ec26                	sd	s1,24(sp)
    8000151c:	e84a                	sd	s2,16(sp)
    8000151e:	f406                	sd	ra,40(sp)
    80001520:	f022                	sd	s0,32(sp)
    80001522:	e44e                	sd	s3,8(sp)
    80001524:	e052                	sd	s4,0(sp)
    80001526:	07a1                	addi	a5,a5,8
    80001528:	4741                	li	a4,16
    8000152a:	892a                	mv	s2,a0
    8000152c:	44c1                	li	s1,16
    8000152e:	00e7e363          	bltu	a5,a4,80001534 <_malloc_r+0x22>
    80001532:	84be                	mv	s1,a5
    80001534:	80000737          	lui	a4,0x80000
    80001538:	fff74713          	not	a4,a4
    8000153c:	00f76463          	bltu	a4,a5,80001544 <_malloc_r+0x32>
    80001540:	00b4fe63          	bgeu	s1,a1,8000155c <_malloc_r+0x4a>
    80001544:	47b1                	li	a5,12
    80001546:	00f92023          	sw	a5,0(s2)
    8000154a:	4501                	li	a0,0
    8000154c:	70a2                	ld	ra,40(sp)
    8000154e:	7402                	ld	s0,32(sp)
    80001550:	64e2                	ld	s1,24(sp)
    80001552:	6942                	ld	s2,16(sp)
    80001554:	69a2                	ld	s3,8(sp)
    80001556:	6a02                	ld	s4,0(sp)
    80001558:	6145                	addi	sp,sp,48
    8000155a:	8082                	ret
    8000155c:	854a                	mv	a0,s2
    8000155e:	0e4000ef          	jal	80001642 <__malloc_lock>
    80001562:	83818993          	addi	s3,gp,-1992 # 80001fb0 <__malloc_free_list>
    80001566:	0009b783          	ld	a5,0(s3)
    8000156a:	843e                	mv	s0,a5
    8000156c:	ec21                	bnez	s0,800015c4 <_malloc_r+0xb2>
    8000156e:	85a6                	mv	a1,s1
    80001570:	854a                	mv	a0,s2
    80001572:	f47ff0ef          	jal	800014b8 <sbrk_aligned>
    80001576:	57fd                	li	a5,-1
    80001578:	842a                	mv	s0,a0
    8000157a:	0af51f63          	bne	a0,a5,80001638 <_malloc_r+0x126>
    8000157e:	0009b403          	ld	s0,0(s3)
    80001582:	87a2                	mv	a5,s0
    80001584:	efd1                	bnez	a5,80001620 <_malloc_r+0x10e>
    80001586:	c055                	beqz	s0,8000162a <_malloc_r+0x118>
    80001588:	00043a03          	ld	s4,0(s0)
    8000158c:	4581                	li	a1,0
    8000158e:	854a                	mv	a0,s2
    80001590:	9a22                	add	s4,s4,s0
    80001592:	420000ef          	jal	800019b2 <_sbrk_r>
    80001596:	08aa1a63          	bne	s4,a0,8000162a <_malloc_r+0x118>
    8000159a:	601c                	ld	a5,0(s0)
    8000159c:	854a                	mv	a0,s2
    8000159e:	8c9d                	sub	s1,s1,a5
    800015a0:	85a6                	mv	a1,s1
    800015a2:	f17ff0ef          	jal	800014b8 <sbrk_aligned>
    800015a6:	57fd                	li	a5,-1
    800015a8:	08f50163          	beq	a0,a5,8000162a <_malloc_r+0x118>
    800015ac:	601c                	ld	a5,0(s0)
    800015ae:	97a6                	add	a5,a5,s1
    800015b0:	e01c                	sd	a5,0(s0)
    800015b2:	0009b783          	ld	a5,0(s3)
    800015b6:	c3d9                	beqz	a5,8000163c <_malloc_r+0x12a>
    800015b8:	6798                	ld	a4,8(a5)
    800015ba:	06871663          	bne	a4,s0,80001626 <_malloc_r+0x114>
    800015be:	0007b423          	sd	zero,8(a5)
    800015c2:	a015                	j	800015e6 <_malloc_r+0xd4>
    800015c4:	6014                	ld	a3,0(s0)
    800015c6:	9e85                	subw	a3,a3,s1
    800015c8:	0406c963          	bltz	a3,8000161a <_malloc_r+0x108>
    800015cc:	473d                	li	a4,15
    800015ce:	02d75e63          	bge	a4,a3,8000160a <_malloc_r+0xf8>
    800015d2:	e004                	sd	s1,0(s0)
    800015d4:	00940733          	add	a4,s0,s1
    800015d8:	02879763          	bne	a5,s0,80001606 <_malloc_r+0xf4>
    800015dc:	00e9b023          	sd	a4,0(s3)
    800015e0:	641c                	ld	a5,8(s0)
    800015e2:	e314                	sd	a3,0(a4)
    800015e4:	e71c                	sd	a5,8(a4)
    800015e6:	854a                	mv	a0,s2
    800015e8:	05c000ef          	jal	80001644 <__malloc_unlock>
    800015ec:	00f40513          	addi	a0,s0,15
    800015f0:	00840793          	addi	a5,s0,8
    800015f4:	9961                	andi	a0,a0,-8
    800015f6:	40f507bb          	subw	a5,a0,a5
    800015fa:	dba9                	beqz	a5,8000154c <_malloc_r+0x3a>
    800015fc:	943e                	add	s0,s0,a5
    800015fe:	40f007bb          	negw	a5,a5
    80001602:	e01c                	sd	a5,0(s0)
    80001604:	b7a1                	j	8000154c <_malloc_r+0x3a>
    80001606:	e798                	sd	a4,8(a5)
    80001608:	bfe1                	j	800015e0 <_malloc_r+0xce>
    8000160a:	6418                	ld	a4,8(s0)
    8000160c:	00879563          	bne	a5,s0,80001616 <_malloc_r+0x104>
    80001610:	00e9b023          	sd	a4,0(s3)
    80001614:	bfc9                	j	800015e6 <_malloc_r+0xd4>
    80001616:	e798                	sd	a4,8(a5)
    80001618:	b7f9                	j	800015e6 <_malloc_r+0xd4>
    8000161a:	87a2                	mv	a5,s0
    8000161c:	6400                	ld	s0,8(s0)
    8000161e:	b7b9                	j	8000156c <_malloc_r+0x5a>
    80001620:	843e                	mv	s0,a5
    80001622:	679c                	ld	a5,8(a5)
    80001624:	b785                	j	80001584 <_malloc_r+0x72>
    80001626:	87ba                	mv	a5,a4
    80001628:	b779                	j	800015b6 <_malloc_r+0xa4>
    8000162a:	47b1                	li	a5,12
    8000162c:	00f92023          	sw	a5,0(s2)
    80001630:	854a                	mv	a0,s2
    80001632:	012000ef          	jal	80001644 <__malloc_unlock>
    80001636:	bf11                	j	8000154a <_malloc_r+0x38>
    80001638:	e104                	sd	s1,0(a0)
    8000163a:	b775                	j	800015e6 <_malloc_r+0xd4>
    8000163c:	00003423          	sd	zero,8(zero) # 8 <__boot_hart+0x8>
    80001640:	9002                	ebreak

0000000080001642 <__malloc_lock>:
    80001642:	8082                	ret

0000000080001644 <__malloc_unlock>:
    80001644:	8082                	ret

0000000080001646 <_realloc_r>:
    80001646:	7179                	addi	sp,sp,-48
    80001648:	f022                	sd	s0,32(sp)
    8000164a:	f406                	sd	ra,40(sp)
    8000164c:	ec26                	sd	s1,24(sp)
    8000164e:	e84a                	sd	s2,16(sp)
    80001650:	e44e                	sd	s3,8(sp)
    80001652:	e052                	sd	s4,0(sp)
    80001654:	8432                	mv	s0,a2
    80001656:	e991                	bnez	a1,8000166a <_realloc_r+0x24>
    80001658:	7402                	ld	s0,32(sp)
    8000165a:	70a2                	ld	ra,40(sp)
    8000165c:	64e2                	ld	s1,24(sp)
    8000165e:	6942                	ld	s2,16(sp)
    80001660:	69a2                	ld	s3,8(sp)
    80001662:	6a02                	ld	s4,0(sp)
    80001664:	85b2                	mv	a1,a2
    80001666:	6145                	addi	sp,sp,48
    80001668:	b56d                	j	80001512 <_malloc_r>
    8000166a:	ee09                	bnez	a2,80001684 <_realloc_r+0x3e>
    8000166c:	dadff0ef          	jal	80001418 <_free_r>
    80001670:	4481                	li	s1,0
    80001672:	70a2                	ld	ra,40(sp)
    80001674:	7402                	ld	s0,32(sp)
    80001676:	6942                	ld	s2,16(sp)
    80001678:	69a2                	ld	s3,8(sp)
    8000167a:	6a02                	ld	s4,0(sp)
    8000167c:	8526                	mv	a0,s1
    8000167e:	64e2                	ld	s1,24(sp)
    80001680:	6145                	addi	sp,sp,48
    80001682:	8082                	ret
    80001684:	8a2a                	mv	s4,a0
    80001686:	84ae                	mv	s1,a1
    80001688:	352000ef          	jal	800019da <_malloc_usable_size_r>
    8000168c:	892a                	mv	s2,a0
    8000168e:	00856663          	bltu	a0,s0,8000169a <_realloc_r+0x54>
    80001692:	00155793          	srli	a5,a0,0x1
    80001696:	fc87eee3          	bltu	a5,s0,80001672 <_realloc_r+0x2c>
    8000169a:	85a2                	mv	a1,s0
    8000169c:	8552                	mv	a0,s4
    8000169e:	e75ff0ef          	jal	80001512 <_malloc_r>
    800016a2:	89aa                	mv	s3,a0
    800016a4:	e119                	bnez	a0,800016aa <_realloc_r+0x64>
    800016a6:	84ce                	mv	s1,s3
    800016a8:	b7e9                	j	80001672 <_realloc_r+0x2c>
    800016aa:	8622                	mv	a2,s0
    800016ac:	00897363          	bgeu	s2,s0,800016b2 <_realloc_r+0x6c>
    800016b0:	864a                	mv	a2,s2
    800016b2:	85a6                	mv	a1,s1
    800016b4:	854e                	mv	a0,s3
    800016b6:	d4dff0ef          	jal	80001402 <memcpy>
    800016ba:	85a6                	mv	a1,s1
    800016bc:	8552                	mv	a0,s4
    800016be:	d5bff0ef          	jal	80001418 <_free_r>
    800016c2:	b7d5                	j	800016a6 <_realloc_r+0x60>

00000000800016c4 <__sflush_r>:
    800016c4:	01059783          	lh	a5,16(a1)
    800016c8:	7179                	addi	sp,sp,-48
    800016ca:	f022                	sd	s0,32(sp)
    800016cc:	ec26                	sd	s1,24(sp)
    800016ce:	f406                	sd	ra,40(sp)
    800016d0:	e84a                	sd	s2,16(sp)
    800016d2:	e44e                	sd	s3,8(sp)
    800016d4:	0087f713          	andi	a4,a5,8
    800016d8:	84aa                	mv	s1,a0
    800016da:	842e                	mv	s0,a1
    800016dc:	eb69                	bnez	a4,800017ae <__sflush_r+0xea>
    800016de:	4598                	lw	a4,8(a1)
    800016e0:	00e04563          	bgtz	a4,800016ea <__sflush_r+0x26>
    800016e4:	5db8                	lw	a4,120(a1)
    800016e6:	0ae05b63          	blez	a4,8000179c <__sflush_r+0xd8>
    800016ea:	6838                	ld	a4,80(s0)
    800016ec:	cb45                	beqz	a4,8000179c <__sflush_r+0xd8>
    800016ee:	0004a903          	lw	s2,0(s1)
    800016f2:	03379693          	slli	a3,a5,0x33
    800016f6:	0004a023          	sw	zero,0(s1)
    800016fa:	7c0c                	ld	a1,56(s0)
    800016fc:	0606de63          	bgez	a3,80001778 <__sflush_r+0xb4>
    80001700:	6c50                	ld	a2,152(s0)
    80001702:	01045783          	lhu	a5,16(s0)
    80001706:	8b91                	andi	a5,a5,4
    80001708:	c799                	beqz	a5,80001716 <__sflush_r+0x52>
    8000170a:	441c                	lw	a5,8(s0)
    8000170c:	8e1d                	sub	a2,a2,a5
    8000170e:	703c                	ld	a5,96(s0)
    80001710:	c399                	beqz	a5,80001716 <__sflush_r+0x52>
    80001712:	5c3c                	lw	a5,120(s0)
    80001714:	8e1d                	sub	a2,a2,a5
    80001716:	683c                	ld	a5,80(s0)
    80001718:	7c0c                	ld	a1,56(s0)
    8000171a:	4681                	li	a3,0
    8000171c:	8526                	mv	a0,s1
    8000171e:	9782                	jalr	a5
    80001720:	577d                	li	a4,-1
    80001722:	01045783          	lhu	a5,16(s0)
    80001726:	00e51d63          	bne	a0,a4,80001740 <__sflush_r+0x7c>
    8000172a:	4094                	lw	a3,0(s1)
    8000172c:	4775                	li	a4,29
    8000172e:	06d76963          	bltu	a4,a3,800017a0 <__sflush_r+0xdc>
    80001732:	20400737          	lui	a4,0x20400
    80001736:	0705                	addi	a4,a4,1 # 20400001 <__heap_size+0x203e0001>
    80001738:	00d75733          	srl	a4,a4,a3
    8000173c:	8b05                	andi	a4,a4,1
    8000173e:	c32d                	beqz	a4,800017a0 <__sflush_r+0xdc>
    80001740:	6c18                	ld	a4,24(s0)
    80001742:	00042423          	sw	zero,8(s0)
    80001746:	e018                	sd	a4,0(s0)
    80001748:	03379713          	slli	a4,a5,0x33
    8000174c:	00075863          	bgez	a4,8000175c <__sflush_r+0x98>
    80001750:	57fd                	li	a5,-1
    80001752:	00f51463          	bne	a0,a5,8000175a <__sflush_r+0x96>
    80001756:	409c                	lw	a5,0(s1)
    80001758:	e391                	bnez	a5,8000175c <__sflush_r+0x98>
    8000175a:	ec48                	sd	a0,152(s0)
    8000175c:	702c                	ld	a1,96(s0)
    8000175e:	0124a023          	sw	s2,0(s1)
    80001762:	cd8d                	beqz	a1,8000179c <__sflush_r+0xd8>
    80001764:	07c40793          	addi	a5,s0,124
    80001768:	00f58563          	beq	a1,a5,80001772 <__sflush_r+0xae>
    8000176c:	8526                	mv	a0,s1
    8000176e:	cabff0ef          	jal	80001418 <_free_r>
    80001772:	06043023          	sd	zero,96(s0)
    80001776:	a01d                	j	8000179c <__sflush_r+0xd8>
    80001778:	4601                	li	a2,0
    8000177a:	4685                	li	a3,1
    8000177c:	8526                	mv	a0,s1
    8000177e:	9702                	jalr	a4
    80001780:	57fd                	li	a5,-1
    80001782:	862a                	mv	a2,a0
    80001784:	f6f51fe3          	bne	a0,a5,80001702 <__sflush_r+0x3e>
    80001788:	409c                	lw	a5,0(s1)
    8000178a:	dfa5                	beqz	a5,80001702 <__sflush_r+0x3e>
    8000178c:	4775                	li	a4,29
    8000178e:	00e78563          	beq	a5,a4,80001798 <__sflush_r+0xd4>
    80001792:	4759                	li	a4,22
    80001794:	04e79663          	bne	a5,a4,800017e0 <__sflush_r+0x11c>
    80001798:	0124a023          	sw	s2,0(s1)
    8000179c:	4501                	li	a0,0
    8000179e:	a881                	j	800017ee <__sflush_r+0x12a>
    800017a0:	0407e793          	ori	a5,a5,64
    800017a4:	0107979b          	slliw	a5,a5,0x10
    800017a8:	4107d79b          	sraiw	a5,a5,0x10
    800017ac:	a835                	j	800017e8 <__sflush_r+0x124>
    800017ae:	0185b983          	ld	s3,24(a1)
    800017b2:	fe0985e3          	beqz	s3,8000179c <__sflush_r+0xd8>
    800017b6:	0005b903          	ld	s2,0(a1)
    800017ba:	8b8d                	andi	a5,a5,3
    800017bc:	0135b023          	sd	s3,0(a1)
    800017c0:	4139093b          	subw	s2,s2,s3
    800017c4:	4701                	li	a4,0
    800017c6:	e391                	bnez	a5,800017ca <__sflush_r+0x106>
    800017c8:	5198                	lw	a4,32(a1)
    800017ca:	c458                	sw	a4,12(s0)
    800017cc:	fd2058e3          	blez	s2,8000179c <__sflush_r+0xd8>
    800017d0:	643c                	ld	a5,72(s0)
    800017d2:	7c0c                	ld	a1,56(s0)
    800017d4:	86ca                	mv	a3,s2
    800017d6:	864e                	mv	a2,s3
    800017d8:	8526                	mv	a0,s1
    800017da:	9782                	jalr	a5
    800017dc:	02a04063          	bgtz	a0,800017fc <__sflush_r+0x138>
    800017e0:	01041783          	lh	a5,16(s0)
    800017e4:	0407e793          	ori	a5,a5,64
    800017e8:	00f41823          	sh	a5,16(s0)
    800017ec:	557d                	li	a0,-1
    800017ee:	70a2                	ld	ra,40(sp)
    800017f0:	7402                	ld	s0,32(sp)
    800017f2:	64e2                	ld	s1,24(sp)
    800017f4:	6942                	ld	s2,16(sp)
    800017f6:	69a2                	ld	s3,8(sp)
    800017f8:	6145                	addi	sp,sp,48
    800017fa:	8082                	ret
    800017fc:	99aa                	add	s3,s3,a0
    800017fe:	40a9093b          	subw	s2,s2,a0
    80001802:	b7e9                	j	800017cc <__sflush_r+0x108>

0000000080001804 <_fflush_r>:
    80001804:	6d9c                	ld	a5,24(a1)
    80001806:	cb8d                	beqz	a5,80001838 <_fflush_r+0x34>
    80001808:	1101                	addi	sp,sp,-32
    8000180a:	e822                	sd	s0,16(sp)
    8000180c:	ec06                	sd	ra,24(sp)
    8000180e:	842a                	mv	s0,a0
    80001810:	c519                	beqz	a0,8000181e <_fflush_r+0x1a>
    80001812:	613c                	ld	a5,64(a0)
    80001814:	e789                	bnez	a5,8000181e <_fflush_r+0x1a>
    80001816:	e42e                	sd	a1,8(sp)
    80001818:	c5eff0ef          	jal	80000c76 <__sinit>
    8000181c:	65a2                	ld	a1,8(sp)
    8000181e:	01059783          	lh	a5,16(a1)
    80001822:	c791                	beqz	a5,8000182e <_fflush_r+0x2a>
    80001824:	8522                	mv	a0,s0
    80001826:	6442                	ld	s0,16(sp)
    80001828:	60e2                	ld	ra,24(sp)
    8000182a:	6105                	addi	sp,sp,32
    8000182c:	bd61                	j	800016c4 <__sflush_r>
    8000182e:	60e2                	ld	ra,24(sp)
    80001830:	6442                	ld	s0,16(sp)
    80001832:	4501                	li	a0,0
    80001834:	6105                	addi	sp,sp,32
    80001836:	8082                	ret
    80001838:	4501                	li	a0,0
    8000183a:	8082                	ret

000000008000183c <fflush>:
    8000183c:	85aa                	mv	a1,a0
    8000183e:	ed19                	bnez	a0,8000185c <fflush+0x20>
    80001840:	00000617          	auipc	a2,0x0
    80001844:	72060613          	addi	a2,a2,1824 # 80001f60 <__sglue>
    80001848:	00000597          	auipc	a1,0x0
    8000184c:	fbc58593          	addi	a1,a1,-68 # 80001804 <_fflush_r>
    80001850:	00000517          	auipc	a0,0x0
    80001854:	68050513          	addi	a0,a0,1664 # 80001ed0 <_impure_data>
    80001858:	f38ff06f          	j	80000f90 <_fwalk_sglue>
    8000185c:	00000517          	auipc	a0,0x0
    80001860:	71c53503          	ld	a0,1820(a0) # 80001f78 <_impure_ptr>
    80001864:	b745                	j	80001804 <_fflush_r>

0000000080001866 <__swhatbuf_r>:
    80001866:	7175                	addi	sp,sp,-144
    80001868:	e122                	sd	s0,128(sp)
    8000186a:	842e                	mv	s0,a1
    8000186c:	01259583          	lh	a1,18(a1)
    80001870:	fca6                	sd	s1,120(sp)
    80001872:	f8ca                	sd	s2,112(sp)
    80001874:	e506                	sd	ra,136(sp)
    80001876:	84b2                	mv	s1,a2
    80001878:	8936                	mv	s2,a3
    8000187a:	0205d363          	bgez	a1,800018a0 <__swhatbuf_r+0x3a>
    8000187e:	01045783          	lhu	a5,16(s0)
    80001882:	0807f793          	andi	a5,a5,128
    80001886:	eb95                	bnez	a5,800018ba <__swhatbuf_r+0x54>
    80001888:	40000713          	li	a4,1024
    8000188c:	60aa                	ld	ra,136(sp)
    8000188e:	640a                	ld	s0,128(sp)
    80001890:	00f92023          	sw	a5,0(s2)
    80001894:	e098                	sd	a4,0(s1)
    80001896:	7946                	ld	s2,112(sp)
    80001898:	74e6                	ld	s1,120(sp)
    8000189a:	4501                	li	a0,0
    8000189c:	6149                	addi	sp,sp,144
    8000189e:	8082                	ret
    800018a0:	0030                	addi	a2,sp,8
    800018a2:	0be000ef          	jal	80001960 <_fstat_r>
    800018a6:	fc054ce3          	bltz	a0,8000187e <__swhatbuf_r+0x18>
    800018aa:	47b2                	lw	a5,12(sp)
    800018ac:	673d                	lui	a4,0xf
    800018ae:	8ff9                	and	a5,a5,a4
    800018b0:	6709                	lui	a4,0x2
    800018b2:	8f99                	sub	a5,a5,a4
    800018b4:	0017b793          	seqz	a5,a5
    800018b8:	bfc1                	j	80001888 <__swhatbuf_r+0x22>
    800018ba:	4781                	li	a5,0
    800018bc:	04000713          	li	a4,64
    800018c0:	b7f1                	j	8000188c <__swhatbuf_r+0x26>

00000000800018c2 <__smakebuf_r>:
    800018c2:	0105d783          	lhu	a5,16(a1)
    800018c6:	7139                	addi	sp,sp,-64
    800018c8:	f822                	sd	s0,48(sp)
    800018ca:	fc06                	sd	ra,56(sp)
    800018cc:	f426                	sd	s1,40(sp)
    800018ce:	f04a                	sd	s2,32(sp)
    800018d0:	ec4e                	sd	s3,24(sp)
    800018d2:	8b89                	andi	a5,a5,2
    800018d4:	842e                	mv	s0,a1
    800018d6:	cf91                	beqz	a5,800018f2 <__smakebuf_r+0x30>
    800018d8:	07f40793          	addi	a5,s0,127
    800018dc:	e01c                	sd	a5,0(s0)
    800018de:	ec1c                	sd	a5,24(s0)
    800018e0:	4785                	li	a5,1
    800018e2:	d01c                	sw	a5,32(s0)
    800018e4:	70e2                	ld	ra,56(sp)
    800018e6:	7442                	ld	s0,48(sp)
    800018e8:	74a2                	ld	s1,40(sp)
    800018ea:	7902                	ld	s2,32(sp)
    800018ec:	69e2                	ld	s3,24(sp)
    800018ee:	6121                	addi	sp,sp,64
    800018f0:	8082                	ret
    800018f2:	0054                	addi	a3,sp,4
    800018f4:	0030                	addi	a2,sp,8
    800018f6:	84aa                	mv	s1,a0
    800018f8:	f6fff0ef          	jal	80001866 <__swhatbuf_r>
    800018fc:	69a2                	ld	s3,8(sp)
    800018fe:	892a                	mv	s2,a0
    80001900:	8526                	mv	a0,s1
    80001902:	85ce                	mv	a1,s3
    80001904:	c0fff0ef          	jal	80001512 <_malloc_r>
    80001908:	ed01                	bnez	a0,80001920 <__smakebuf_r+0x5e>
    8000190a:	01041783          	lh	a5,16(s0)
    8000190e:	2007f713          	andi	a4,a5,512
    80001912:	fb69                	bnez	a4,800018e4 <__smakebuf_r+0x22>
    80001914:	9bf1                	andi	a5,a5,-4
    80001916:	0027e793          	ori	a5,a5,2
    8000191a:	00f41823          	sh	a5,16(s0)
    8000191e:	bf6d                	j	800018d8 <__smakebuf_r+0x16>
    80001920:	01045783          	lhu	a5,16(s0)
    80001924:	e008                	sd	a0,0(s0)
    80001926:	ec08                	sd	a0,24(s0)
    80001928:	0807e793          	ori	a5,a5,128
    8000192c:	00f41823          	sh	a5,16(s0)
    80001930:	4792                	lw	a5,4(sp)
    80001932:	03342023          	sw	s3,32(s0)
    80001936:	cf91                	beqz	a5,80001952 <__smakebuf_r+0x90>
    80001938:	01241583          	lh	a1,18(s0)
    8000193c:	8526                	mv	a0,s1
    8000193e:	04c000ef          	jal	8000198a <_isatty_r>
    80001942:	c901                	beqz	a0,80001952 <__smakebuf_r+0x90>
    80001944:	01045783          	lhu	a5,16(s0)
    80001948:	9bf1                	andi	a5,a5,-4
    8000194a:	0017e793          	ori	a5,a5,1
    8000194e:	00f41823          	sh	a5,16(s0)
    80001952:	01045783          	lhu	a5,16(s0)
    80001956:	0127e533          	or	a0,a5,s2
    8000195a:	00a41823          	sh	a0,16(s0)
    8000195e:	b759                	j	800018e4 <__smakebuf_r+0x22>

0000000080001960 <_fstat_r>:
    80001960:	1141                	addi	sp,sp,-16
    80001962:	e022                	sd	s0,0(sp)
    80001964:	842a                	mv	s0,a0
    80001966:	852e                	mv	a0,a1
    80001968:	85b2                	mv	a1,a2
    8000196a:	8201a423          	sw	zero,-2008(gp) # 80001fa0 <errno>
    8000196e:	e406                	sd	ra,8(sp)
    80001970:	096000ef          	jal	80001a06 <_fstat>
    80001974:	57fd                	li	a5,-1
    80001976:	00f51663          	bne	a0,a5,80001982 <_fstat_r+0x22>
    8000197a:	8281a783          	lw	a5,-2008(gp) # 80001fa0 <errno>
    8000197e:	c391                	beqz	a5,80001982 <_fstat_r+0x22>
    80001980:	c01c                	sw	a5,0(s0)
    80001982:	60a2                	ld	ra,8(sp)
    80001984:	6402                	ld	s0,0(sp)
    80001986:	0141                	addi	sp,sp,16
    80001988:	8082                	ret

000000008000198a <_isatty_r>:
    8000198a:	1141                	addi	sp,sp,-16
    8000198c:	e022                	sd	s0,0(sp)
    8000198e:	842a                	mv	s0,a0
    80001990:	852e                	mv	a0,a1
    80001992:	8201a423          	sw	zero,-2008(gp) # 80001fa0 <errno>
    80001996:	e406                	sd	ra,8(sp)
    80001998:	082000ef          	jal	80001a1a <_isatty>
    8000199c:	57fd                	li	a5,-1
    8000199e:	00f51663          	bne	a0,a5,800019aa <_isatty_r+0x20>
    800019a2:	8281a783          	lw	a5,-2008(gp) # 80001fa0 <errno>
    800019a6:	c391                	beqz	a5,800019aa <_isatty_r+0x20>
    800019a8:	c01c                	sw	a5,0(s0)
    800019aa:	60a2                	ld	ra,8(sp)
    800019ac:	6402                	ld	s0,0(sp)
    800019ae:	0141                	addi	sp,sp,16
    800019b0:	8082                	ret

00000000800019b2 <_sbrk_r>:
    800019b2:	1141                	addi	sp,sp,-16
    800019b4:	e022                	sd	s0,0(sp)
    800019b6:	842a                	mv	s0,a0
    800019b8:	852e                	mv	a0,a1
    800019ba:	8201a423          	sw	zero,-2008(gp) # 80001fa0 <errno>
    800019be:	e406                	sd	ra,8(sp)
    800019c0:	08c000ef          	jal	80001a4c <_sbrk>
    800019c4:	57fd                	li	a5,-1
    800019c6:	00f51663          	bne	a0,a5,800019d2 <_sbrk_r+0x20>
    800019ca:	8281a783          	lw	a5,-2008(gp) # 80001fa0 <errno>
    800019ce:	c391                	beqz	a5,800019d2 <_sbrk_r+0x20>
    800019d0:	c01c                	sw	a5,0(s0)
    800019d2:	60a2                	ld	ra,8(sp)
    800019d4:	6402                	ld	s0,0(sp)
    800019d6:	0141                	addi	sp,sp,16
    800019d8:	8082                	ret

00000000800019da <_malloc_usable_size_r>:
    800019da:	ff85b503          	ld	a0,-8(a1)
    800019de:	0005079b          	sext.w	a5,a0
    800019e2:	1561                	addi	a0,a0,-8
    800019e4:	0007d663          	bgez	a5,800019f0 <_malloc_usable_size_r+0x16>
    800019e8:	95aa                	add	a1,a1,a0
    800019ea:	6188                	ld	a0,0(a1)
    800019ec:	17e1                	addi	a5,a5,-8
    800019ee:	953e                	add	a0,a0,a5
    800019f0:	8082                	ret

00000000800019f2 <_close>:
#include <errno.h>
#include "syscall.h"

int _close(int file)
{
    800019f2:	1141                	addi	sp,sp,-16
    800019f4:	e406                	sd	ra,8(sp)
    errno = EBADF;
    800019f6:	182000ef          	jal	80001b78 <__errno>
    return -1;
}
    800019fa:	60a2                	ld	ra,8(sp)
    errno = EBADF;
    800019fc:	47a5                	li	a5,9
    800019fe:	c11c                	sw	a5,0(a0)
}
    80001a00:	557d                	li	a0,-1
    80001a02:	0141                	addi	sp,sp,16
    80001a04:	8082                	ret

0000000080001a06 <_fstat>:
#include <errno.h>
#include <sys/stat.h>
#include "syscall.h"

int _fstat(int file, struct stat *st)
{
    80001a06:	1141                	addi	sp,sp,-16
    80001a08:	e406                	sd	ra,8(sp)
    errno = EBADF;
    80001a0a:	16e000ef          	jal	80001b78 <__errno>
    return -1;
}
    80001a0e:	60a2                	ld	ra,8(sp)
    errno = EBADF;
    80001a10:	47a5                	li	a5,9
    80001a12:	c11c                	sw	a5,0(a0)
}
    80001a14:	557d                	li	a0,-1
    80001a16:	0141                	addi	sp,sp,16
    80001a18:	8082                	ret

0000000080001a1a <_isatty>:
#include <unistd.h>
#include "syscall.h"

int _isatty(int file)
{
    return (file == STDOUT_FILENO || file == STDERR_FILENO);
    80001a1a:	357d                	addiw	a0,a0,-1
}
    80001a1c:	00253513          	sltiu	a0,a0,2
    80001a20:	8082                	ret

0000000080001a22 <_lseek>:
#include <errno.h>
#include <sys/types.h>
#include "syscall.h"

off_t _lseek(int file, off_t ptr, int dir)
{
    80001a22:	1141                	addi	sp,sp,-16
    80001a24:	e406                	sd	ra,8(sp)
    errno = EBADF;
    80001a26:	152000ef          	jal	80001b78 <__errno>
    return -1;
}
    80001a2a:	60a2                	ld	ra,8(sp)
    errno = EBADF;
    80001a2c:	47a5                	li	a5,9
    80001a2e:	c11c                	sw	a5,0(a0)
}
    80001a30:	557d                	li	a0,-1
    80001a32:	0141                	addi	sp,sp,16
    80001a34:	8082                	ret

0000000080001a36 <_read>:
#include <errno.h>
#include <sys/types.h>
#include "syscall.h"

ssize_t _read(int file, void *ptr, size_t len)
{
    80001a36:	1141                	addi	sp,sp,-16
    80001a38:	e406                	sd	ra,8(sp)
    errno = ENOSYS;
    80001a3a:	13e000ef          	jal	80001b78 <__errno>
    return -1;
}
    80001a3e:	60a2                	ld	ra,8(sp)
    errno = ENOSYS;
    80001a40:	05800793          	li	a5,88
    80001a44:	c11c                	sw	a5,0(a0)
}
    80001a46:	557d                	li	a0,-1
    80001a48:	0141                	addi	sp,sp,16
    80001a4a:	8082                	ret

0000000080001a4c <_sbrk>:
{
    extern char __heap_end[];
    char *newbrk;
    char *oldbrk;

    oldbrk = curbrk;
    80001a4c:	00000717          	auipc	a4,0x0
    80001a50:	53470713          	addi	a4,a4,1332 # 80001f80 <curbrk>
    80001a54:	631c                	ld	a5,0(a4)
    newbrk = oldbrk + incr;
    if (unlikely((newbrk < _end) || (newbrk >= __heap_end))) {
    80001a56:	b8818693          	addi	a3,gp,-1144 # 80002300 <_end>
    newbrk = oldbrk + incr;
    80001a5a:	953e                	add	a0,a0,a5
    if (unlikely((newbrk < _end) || (newbrk >= __heap_end))) {
    80001a5c:	00d56b63          	bltu	a0,a3,80001a72 <_sbrk+0x26>
    80001a60:	00021697          	auipc	a3,0x21
    80001a64:	5a068693          	addi	a3,a3,1440 # 80023000 <__heap_end>
    80001a68:	00d57563          	bgeu	a0,a3,80001a72 <_sbrk+0x26>
        errno = ENOMEM;
        return (void *)(-1);
    }

    curbrk = newbrk;
    80001a6c:	e308                	sd	a0,0(a4)
    return oldbrk;
}
    80001a6e:	853e                	mv	a0,a5
    80001a70:	8082                	ret
{
    80001a72:	1141                	addi	sp,sp,-16
    80001a74:	e406                	sd	ra,8(sp)
        errno = ENOMEM;
    80001a76:	102000ef          	jal	80001b78 <__errno>
}
    80001a7a:	60a2                	ld	ra,8(sp)
        errno = ENOMEM;
    80001a7c:	47b1                	li	a5,12
    80001a7e:	c11c                	sw	a5,0(a0)
        return (void *)(-1);
    80001a80:	57fd                	li	a5,-1
}
    80001a82:	853e                	mv	a0,a5
    80001a84:	0141                	addi	sp,sp,16
    80001a86:	8082                	ret

0000000080001a88 <_write>:
#include <sys/types.h>
#include "syscall.h"

ssize_t _write(int fd, const void *ptr, size_t len)
{
    return SYSCALL3(SYS_write, fd, (uintptr_t)ptr, len);
    80001a88:	04000693          	li	a3,64
    80001a8c:	a0b9                	j	80001ada <htif_syscall>

0000000080001a8e <handle_trap>:
#include <stdint.h>
#include "syscall.h"

void __attribute__((weak)) handle_trap(uintptr_t epc, uintptr_t cause, uintptr_t tval, uintptr_t regs[32])
{
    80001a8e:	1141                	addi	sp,sp,-16
    /* Extract low-order bits of exception code as positive int */
    int code = cause & ((1UL << ((sizeof(int)<<3)-1)) - 1);
    80001a90:	02159513          	slli	a0,a1,0x21
{
    80001a94:	e406                	sd	ra,8(sp)
    int code = cause & ((1UL << ((sizeof(int)<<3)-1)) - 1);
    80001a96:	9105                	srli	a0,a0,0x21
    /* Encode interrupt as negative value */
    code = ((intptr_t)cause < 0) ? -code : code;
    80001a98:	0005d463          	bgez	a1,80001aa0 <handle_trap+0x12>
    80001a9c:	40a0053b          	negw	a0,a0
    _exit(code);
    80001aa0:	086000ef          	jal	80001b26 <_exit>

0000000080001aa4 <__init_tls>:
#include <string.h>

void __init_tls(void)
{
    80001aa4:	1141                	addi	sp,sp,-16
    extern char __tdata_start[];
    extern char __tbss_offset[];
    extern char __tdata_size[];
    extern char __tbss_size[];

    memcpy(__thread_self, __tdata_start, (size_t)__tdata_size);
    80001aa6:	00000613          	li	a2,0
    80001aaa:	00000597          	auipc	a1,0x0
    80001aae:	2aa58593          	addi	a1,a1,682 # 80001d54 <__tbss_end>
    80001ab2:	8512                	mv	a0,tp
{
    80001ab4:	e022                	sd	s0,0(sp)
    80001ab6:	e406                	sd	ra,8(sp)
    memcpy(__thread_self, __tdata_start, (size_t)__tdata_size);
    80001ab8:	8412                	mv	s0,tp
    80001aba:	949ff0ef          	jal	80001402 <memcpy>
    memset(__thread_self + (size_t)__tbss_offset, 0, (size_t)__tbss_size);
    80001abe:	00000513          	li	a0,0
    80001ac2:	9522                	add	a0,a0,s0
}
    80001ac4:	6402                	ld	s0,0(sp)
    80001ac6:	60a2                	ld	ra,8(sp)
    memset(__thread_self + (size_t)__tbss_offset, 0, (size_t)__tbss_size);
    80001ac8:	00000613          	li	a2,0
    80001acc:	4581                	li	a1,0
}
    80001ace:	0141                	addi	sp,sp,16
    memset(__thread_self + (size_t)__tbss_offset, 0, (size_t)__tbss_size);
    80001ad0:	923ff06f          	j	800013f2 <memset>

0000000080001ad4 <__main>:
 * Multi-threaded programs should provide their own implementation.
 */
void  __attribute__ ((weak,noreturn)) __main(void)
{
    for (;;) {
        __asm__ __volatile__ ("wfi");
    80001ad4:	10500073          	wfi
    for (;;) {
    80001ad8:	bff5                	j	80001ad4 <__main>

0000000080001ada <htif_syscall>:
volatile uint64_t fromhost __attribute__ ((section (".htif")));

static spinlock_t htif_lock = SPINLOCK_INIT;

long htif_syscall(uint64_t a0, uint64_t a1, uint64_t a2, unsigned long n)
{
    80001ada:	7139                	addi	sp,sp,-64
    volatile uint64_t buf[8];
    uint64_t sc;

    buf[0] = n;
    80001adc:	e036                	sd	a3,0(sp)
    buf[1] = a0;
    80001ade:	e42a                	sd	a0,8(sp)
    buf[2] = a1;
    buf[3] = a2;

    sc = HTIF_TOHOST(0, 0, (uintptr_t)&buf);
    80001ae0:	fff007b7          	lui	a5,0xfff00
    buf[2] = a1;
    80001ae4:	e82e                	sd	a1,16(sp)
    sc = HTIF_TOHOST(0, 0, (uintptr_t)&buf);
    80001ae6:	83c1                	srli	a5,a5,0x10
    buf[3] = a2;
    80001ae8:	ec32                	sd	a2,24(sp)
    sc = HTIF_TOHOST(0, 0, (uintptr_t)&buf);
    80001aea:	860a                	mv	a2,sp
    80001aec:	8e7d                	and	a2,a2,a5
    spin_lock(&htif_lock);
    80001aee:	84018713          	addi	a4,gp,-1984 # 80001fb8 <htif_lock>

static inline long atomic_swap_acquire(atomic_t *p, atomic_t v)
{
    long n;
#ifdef __riscv_atomic
    __asm__ __volatile__ (
    80001af2:	56fd                	li	a3,-1
    return *((volatile const atomic_t *)p);
    80001af4:	431c                	lw	a5,0(a4)

static inline void spin_lock(spinlock_t *lock)
{
    do {
#ifdef __riscv_atomic
        while (atomic_load(&lock->lock));
    80001af6:	fffd                	bnez	a5,80001af4 <htif_syscall+0x1a>
    __asm__ __volatile__ (
    80001af8:	0cd727af          	amoswap.w.aq	a5,a3,(a4)
#endif
    } while (atomic_swap_acquire(&lock->lock, -1));
    80001afc:	ffe5                	bnez	a5,80001af4 <htif_syscall+0x1a>
static inline void wmb(void) { fence(w, w); }
    80001afe:	0110000f          	fence	w,w
    wmb();
    tohost = sc;
    80001b02:	00000697          	auipc	a3,0x0
    80001b06:	3be68693          	addi	a3,a3,958 # 80001ec0 <tohost>
    80001b0a:	e290                	sd	a2,0(a3)
    while (fromhost == 0);
    80001b0c:	669c                	ld	a5,8(a3)
    80001b0e:	dffd                	beqz	a5,80001b0c <htif_syscall+0x32>
    fromhost = 0;
    80001b10:	00000797          	auipc	a5,0x0
    80001b14:	3a07bc23          	sd	zero,952(a5) # 80001ec8 <fromhost>
}

static inline void atomic_clear_release(atomic_t *p)
{
#ifdef __riscv_atomic
    __asm__ __volatile__ (
    80001b18:	0a07202f          	amoswap.w.rl	zero,zero,(a4)
static inline void rmb(void) { fence(r, r); }
    80001b1c:	0220000f          	fence	r,r
    spin_unlock(&htif_lock);

    rmb();
    return buf[0];
    80001b20:	6502                	ld	a0,0(sp)
}
    80001b22:	6121                	addi	sp,sp,64
    80001b24:	8082                	ret

0000000080001b26 <_exit>:
#include "syscall.h"
#include "htif.h"

void __attribute__ ((noreturn)) _exit(int code)
{
    uint64_t cmd = HTIF_TOHOST(0, 0, (code << 1) | 0x1);
    80001b26:	0015179b          	slliw	a5,a0,0x1
    80001b2a:	0017e793          	ori	a5,a5,1
    80001b2e:	2781                	sext.w	a5,a5
    80001b30:	07c2                	slli	a5,a5,0x10
    80001b32:	83c1                	srli	a5,a5,0x10
    80001b34:	00000717          	auipc	a4,0x0
    80001b38:	38c70713          	addi	a4,a4,908 # 80001ec0 <tohost>
    for (;;) {
        fromhost = 0;
    80001b3c:	00000697          	auipc	a3,0x0
    80001b40:	3806b623          	sd	zero,908(a3) # 80001ec8 <fromhost>
        tohost = cmd;
    80001b44:	e31c                	sd	a5,0(a4)
    for (;;) {
    80001b46:	bfdd                	j	80001b3c <_exit+0x16>

0000000080001b48 <atexit>:
    80001b48:	85aa                	mv	a1,a0
    80001b4a:	4681                	li	a3,0
    80001b4c:	4601                	li	a2,0
    80001b4e:	4501                	li	a0,0
    80001b50:	a0d9                	j	80001c16 <__register_exitproc>

0000000080001b52 <exit>:
    80001b52:	1141                	addi	sp,sp,-16
    80001b54:	e022                	sd	s0,0(sp)
    80001b56:	e406                	sd	ra,8(sp)
    80001b58:	00000797          	auipc	a5,0x0
    80001b5c:	13478793          	addi	a5,a5,308 # 80001c8c <__call_exitprocs>
    80001b60:	842a                	mv	s0,a0
    80001b62:	c781                	beqz	a5,80001b6a <exit+0x18>
    80001b64:	4581                	li	a1,0
    80001b66:	126000ef          	jal	80001c8c <__call_exitprocs>
    80001b6a:	8201b783          	ld	a5,-2016(gp) # 80001f98 <__stdio_exit_handler>
    80001b6e:	c391                	beqz	a5,80001b72 <exit+0x20>
    80001b70:	9782                	jalr	a5
    80001b72:	8522                	mv	a0,s0
    80001b74:	fb3ff0ef          	jal	80001b26 <_exit>

0000000080001b78 <__errno>:
    80001b78:	00000517          	auipc	a0,0x0
    80001b7c:	40053503          	ld	a0,1024(a0) # 80001f78 <_impure_ptr>
    80001b80:	8082                	ret

0000000080001b82 <__libc_init_array>:
    80001b82:	1101                	addi	sp,sp,-32
    80001b84:	e822                	sd	s0,16(sp)
    80001b86:	e426                	sd	s1,8(sp)
    80001b88:	00000417          	auipc	s0,0x0
    80001b8c:	32840413          	addi	s0,s0,808 # 80001eb0 <__fini_array_end>
    80001b90:	00000497          	auipc	s1,0x0
    80001b94:	32048493          	addi	s1,s1,800 # 80001eb0 <__fini_array_end>
    80001b98:	8c81                	sub	s1,s1,s0
    80001b9a:	e04a                	sd	s2,0(sp)
    80001b9c:	ec06                	sd	ra,24(sp)
    80001b9e:	848d                	srai	s1,s1,0x3
    80001ba0:	4901                	li	s2,0
    80001ba2:	02991563          	bne	s2,s1,80001bcc <__libc_init_array+0x4a>
    80001ba6:	00000417          	auipc	s0,0x0
    80001baa:	30a40413          	addi	s0,s0,778 # 80001eb0 <__fini_array_end>
    80001bae:	00000497          	auipc	s1,0x0
    80001bb2:	30248493          	addi	s1,s1,770 # 80001eb0 <__fini_array_end>
    80001bb6:	8c81                	sub	s1,s1,s0
    80001bb8:	848d                	srai	s1,s1,0x3
    80001bba:	4901                	li	s2,0
    80001bbc:	00991d63          	bne	s2,s1,80001bd6 <__libc_init_array+0x54>
    80001bc0:	60e2                	ld	ra,24(sp)
    80001bc2:	6442                	ld	s0,16(sp)
    80001bc4:	64a2                	ld	s1,8(sp)
    80001bc6:	6902                	ld	s2,0(sp)
    80001bc8:	6105                	addi	sp,sp,32
    80001bca:	8082                	ret
    80001bcc:	601c                	ld	a5,0(s0)
    80001bce:	0905                	addi	s2,s2,1
    80001bd0:	0421                	addi	s0,s0,8
    80001bd2:	9782                	jalr	a5
    80001bd4:	b7f9                	j	80001ba2 <__libc_init_array+0x20>
    80001bd6:	601c                	ld	a5,0(s0)
    80001bd8:	0905                	addi	s2,s2,1
    80001bda:	0421                	addi	s0,s0,8
    80001bdc:	9782                	jalr	a5
    80001bde:	bff9                	j	80001bbc <__libc_init_array+0x3a>

0000000080001be0 <__libc_fini_array>:
    80001be0:	1101                	addi	sp,sp,-32
    80001be2:	e822                	sd	s0,16(sp)
    80001be4:	e426                	sd	s1,8(sp)
    80001be6:	00000417          	auipc	s0,0x0
    80001bea:	2ca40413          	addi	s0,s0,714 # 80001eb0 <__fini_array_end>
    80001bee:	00000497          	auipc	s1,0x0
    80001bf2:	2c248493          	addi	s1,s1,706 # 80001eb0 <__fini_array_end>
    80001bf6:	8c05                	sub	s0,s0,s1
    80001bf8:	ec06                	sd	ra,24(sp)
    80001bfa:	840d                	srai	s0,s0,0x3
    80001bfc:	e411                	bnez	s0,80001c08 <__libc_fini_array+0x28>
    80001bfe:	60e2                	ld	ra,24(sp)
    80001c00:	6442                	ld	s0,16(sp)
    80001c02:	64a2                	ld	s1,8(sp)
    80001c04:	6105                	addi	sp,sp,32
    80001c06:	8082                	ret
    80001c08:	147d                	addi	s0,s0,-1
    80001c0a:	00341793          	slli	a5,s0,0x3
    80001c0e:	97a6                	add	a5,a5,s1
    80001c10:	639c                	ld	a5,0(a5)
    80001c12:	9782                	jalr	a5
    80001c14:	b7e5                	j	80001bfc <__libc_fini_array+0x1c>

0000000080001c16 <__register_exitproc>:
    80001c16:	88aa                	mv	a7,a0
    80001c18:	85018513          	addi	a0,gp,-1968 # 80001fc8 <__atexit>
    80001c1c:	6118                	ld	a4,0(a0)
    80001c1e:	ef01                	bnez	a4,80001c36 <__register_exitproc+0x20>
    80001c20:	a7018793          	addi	a5,gp,-1424 # 800021e8 <__atexit0>
    80001c24:	e11c                	sd	a5,0(a0)
    80001c26:	00000713          	li	a4,0
    80001c2a:	c701                	beqz	a4,80001c32 <__register_exitproc+0x1c>
    80001c2c:	6318                	ld	a4,0(a4)
    80001c2e:	10e7b823          	sd	a4,272(a5)
    80001c32:	a7018713          	addi	a4,gp,-1424 # 800021e8 <__atexit0>
    80001c36:	471c                	lw	a5,8(a4)
    80001c38:	487d                	li	a6,31
    80001c3a:	557d                	li	a0,-1
    80001c3c:	04f84763          	blt	a6,a5,80001c8a <__register_exitproc+0x74>
    80001c40:	02088d63          	beqz	a7,80001c7a <__register_exitproc+0x64>
    80001c44:	11073803          	ld	a6,272(a4)
    80001c48:	04080163          	beqz	a6,80001c8a <__register_exitproc+0x74>
    80001c4c:	00379513          	slli	a0,a5,0x3
    80001c50:	9542                	add	a0,a0,a6
    80001c52:	e110                	sd	a2,0(a0)
    80001c54:	20082303          	lw	t1,512(a6)
    80001c58:	4605                	li	a2,1
    80001c5a:	00f6163b          	sllw	a2,a2,a5
    80001c5e:	00c36333          	or	t1,t1,a2
    80001c62:	20682023          	sw	t1,512(a6)
    80001c66:	10d53023          	sd	a3,256(a0)
    80001c6a:	4689                	li	a3,2
    80001c6c:	00d89763          	bne	a7,a3,80001c7a <__register_exitproc+0x64>
    80001c70:	20482683          	lw	a3,516(a6)
    80001c74:	8ed1                	or	a3,a3,a2
    80001c76:	20d82223          	sw	a3,516(a6)
    80001c7a:	0017869b          	addiw	a3,a5,1
    80001c7e:	0789                	addi	a5,a5,2
    80001c80:	078e                	slli	a5,a5,0x3
    80001c82:	c714                	sw	a3,8(a4)
    80001c84:	973e                	add	a4,a4,a5
    80001c86:	e30c                	sd	a1,0(a4)
    80001c88:	4501                	li	a0,0
    80001c8a:	8082                	ret

0000000080001c8c <__call_exitprocs>:
    80001c8c:	711d                	addi	sp,sp,-96
    80001c8e:	f852                	sd	s4,48(sp)
    80001c90:	f456                	sd	s5,40(sp)
    80001c92:	f05a                	sd	s6,32(sp)
    80001c94:	ec5e                	sd	s7,24(sp)
    80001c96:	ec86                	sd	ra,88(sp)
    80001c98:	e8a2                	sd	s0,80(sp)
    80001c9a:	e4a6                	sd	s1,72(sp)
    80001c9c:	e0ca                	sd	s2,64(sp)
    80001c9e:	fc4e                	sd	s3,56(sp)
    80001ca0:	e862                	sd	s8,16(sp)
    80001ca2:	e466                	sd	s9,8(sp)
    80001ca4:	8aaa                	mv	s5,a0
    80001ca6:	8a2e                	mv	s4,a1
    80001ca8:	85018b13          	addi	s6,gp,-1968 # 80001fc8 <__atexit>
    80001cac:	4b85                	li	s7,1
    80001cae:	000b3483          	ld	s1,0(s6)
    80001cb2:	cc81                	beqz	s1,80001cca <__call_exitprocs+0x3e>
    80001cb4:	4480                	lw	s0,8(s1)
    80001cb6:	1104b983          	ld	s3,272(s1)
    80001cba:	fff4091b          	addiw	s2,s0,-1
    80001cbe:	040e                	slli	s0,s0,0x3
    80001cc0:	00898cb3          	add	s9,s3,s0
    80001cc4:	9426                	add	s0,s0,s1
    80001cc6:	00095f63          	bgez	s2,80001ce4 <__call_exitprocs+0x58>
    80001cca:	60e6                	ld	ra,88(sp)
    80001ccc:	6446                	ld	s0,80(sp)
    80001cce:	64a6                	ld	s1,72(sp)
    80001cd0:	6906                	ld	s2,64(sp)
    80001cd2:	79e2                	ld	s3,56(sp)
    80001cd4:	7a42                	ld	s4,48(sp)
    80001cd6:	7aa2                	ld	s5,40(sp)
    80001cd8:	7b02                	ld	s6,32(sp)
    80001cda:	6be2                	ld	s7,24(sp)
    80001cdc:	6c42                	ld	s8,16(sp)
    80001cde:	6ca2                	ld	s9,8(sp)
    80001ce0:	6125                	addi	sp,sp,96
    80001ce2:	8082                	ret
    80001ce4:	000a0c63          	beqz	s4,80001cfc <__call_exitprocs+0x70>
    80001ce8:	00099663          	bnez	s3,80001cf4 <__call_exitprocs+0x68>
    80001cec:	397d                	addiw	s2,s2,-1
    80001cee:	1ce1                	addi	s9,s9,-8
    80001cf0:	1461                	addi	s0,s0,-8
    80001cf2:	bfd1                	j	80001cc6 <__call_exitprocs+0x3a>
    80001cf4:	0f8cb783          	ld	a5,248(s9)
    80001cf8:	ff479ae3          	bne	a5,s4,80001cec <__call_exitprocs+0x60>
    80001cfc:	449c                	lw	a5,8(s1)
    80001cfe:	6418                	ld	a4,8(s0)
    80001d00:	37fd                	addiw	a5,a5,-1
    80001d02:	03279963          	bne	a5,s2,80001d34 <__call_exitprocs+0xa8>
    80001d06:	0124a423          	sw	s2,8(s1)
    80001d0a:	d36d                	beqz	a4,80001cec <__call_exitprocs+0x60>
    80001d0c:	0084ac03          	lw	s8,8(s1)
    80001d10:	00098963          	beqz	s3,80001d22 <__call_exitprocs+0x96>
    80001d14:	2009a783          	lw	a5,512(s3)
    80001d18:	012b96bb          	sllw	a3,s7,s2
    80001d1c:	8ff5                	and	a5,a5,a3
    80001d1e:	2781                	sext.w	a5,a5
    80001d20:	ef89                	bnez	a5,80001d3a <__call_exitprocs+0xae>
    80001d22:	9702                	jalr	a4
    80001d24:	4498                	lw	a4,8(s1)
    80001d26:	000b3783          	ld	a5,0(s6)
    80001d2a:	f98712e3          	bne	a4,s8,80001cae <__call_exitprocs+0x22>
    80001d2e:	faf48fe3          	beq	s1,a5,80001cec <__call_exitprocs+0x60>
    80001d32:	bfb5                	j	80001cae <__call_exitprocs+0x22>
    80001d34:	00043423          	sd	zero,8(s0)
    80001d38:	bfc9                	j	80001d0a <__call_exitprocs+0x7e>
    80001d3a:	2049a783          	lw	a5,516(s3)
    80001d3e:	ff8cb583          	ld	a1,-8(s9)
    80001d42:	8ff5                	and	a5,a5,a3
    80001d44:	2781                	sext.w	a5,a5
    80001d46:	e781                	bnez	a5,80001d4e <__call_exitprocs+0xc2>
    80001d48:	8556                	mv	a0,s5
    80001d4a:	9702                	jalr	a4
    80001d4c:	bfe1                	j	80001d24 <__call_exitprocs+0x98>
    80001d4e:	852e                	mv	a0,a1
    80001d50:	9702                	jalr	a4
    80001d52:	bfc9                	j	80001d24 <__call_exitprocs+0x98>

Disassembly of section .htif:

0000000080001ec0 <tohost>:
	...

0000000080001ec8 <fromhost>:
	...
